
a.out:     file format elf64-x86-64


Disassembly of section .init:

0000000000001000 <_init>:
    1000:	f3 0f 1e fa          	endbr64
    1004:	48 83 ec 08          	sub    $0x8,%rsp
    1008:	48 8b 05 e1 7f 00 00 	mov    0x7fe1(%rip),%rax        # 8ff0 <__gmon_start__@Base>
    100f:	48 85 c0             	test   %rax,%rax
    1012:	74 02                	je     1016 <_init+0x16>
    1014:	ff d0                	call   *%rax
    1016:	48 83 c4 08          	add    $0x8,%rsp
    101a:	c3                   	ret

Disassembly of section .plt:

0000000000001020 <.plt>:
    1020:	ff 35 12 7f 00 00    	push   0x7f12(%rip)        # 8f38 <_GLOBAL_OFFSET_TABLE_+0x8>
    1026:	ff 25 14 7f 00 00    	jmp    *0x7f14(%rip)        # 8f40 <_GLOBAL_OFFSET_TABLE_+0x10>
    102c:	0f 1f 40 00          	nopl   0x0(%rax)
    1030:	f3 0f 1e fa          	endbr64
    1034:	68 00 00 00 00       	push   $0x0
    1039:	e9 e2 ff ff ff       	jmp    1020 <_init+0x20>
    103e:	66 90                	xchg   %ax,%ax
    1040:	f3 0f 1e fa          	endbr64
    1044:	68 01 00 00 00       	push   $0x1
    1049:	e9 d2 ff ff ff       	jmp    1020 <_init+0x20>
    104e:	66 90                	xchg   %ax,%ax
    1050:	f3 0f 1e fa          	endbr64
    1054:	68 02 00 00 00       	push   $0x2
    1059:	e9 c2 ff ff ff       	jmp    1020 <_init+0x20>
    105e:	66 90                	xchg   %ax,%ax
    1060:	f3 0f 1e fa          	endbr64
    1064:	68 03 00 00 00       	push   $0x3
    1069:	e9 b2 ff ff ff       	jmp    1020 <_init+0x20>
    106e:	66 90                	xchg   %ax,%ax
    1070:	f3 0f 1e fa          	endbr64
    1074:	68 04 00 00 00       	push   $0x4
    1079:	e9 a2 ff ff ff       	jmp    1020 <_init+0x20>
    107e:	66 90                	xchg   %ax,%ax
    1080:	f3 0f 1e fa          	endbr64
    1084:	68 05 00 00 00       	push   $0x5
    1089:	e9 92 ff ff ff       	jmp    1020 <_init+0x20>
    108e:	66 90                	xchg   %ax,%ax
    1090:	f3 0f 1e fa          	endbr64
    1094:	68 06 00 00 00       	push   $0x6
    1099:	e9 82 ff ff ff       	jmp    1020 <_init+0x20>
    109e:	66 90                	xchg   %ax,%ax
    10a0:	f3 0f 1e fa          	endbr64
    10a4:	68 07 00 00 00       	push   $0x7
    10a9:	e9 72 ff ff ff       	jmp    1020 <_init+0x20>
    10ae:	66 90                	xchg   %ax,%ax
    10b0:	f3 0f 1e fa          	endbr64
    10b4:	68 08 00 00 00       	push   $0x8
    10b9:	e9 62 ff ff ff       	jmp    1020 <_init+0x20>
    10be:	66 90                	xchg   %ax,%ax
    10c0:	f3 0f 1e fa          	endbr64
    10c4:	68 09 00 00 00       	push   $0x9
    10c9:	e9 52 ff ff ff       	jmp    1020 <_init+0x20>
    10ce:	66 90                	xchg   %ax,%ax
    10d0:	f3 0f 1e fa          	endbr64
    10d4:	68 0a 00 00 00       	push   $0xa
    10d9:	e9 42 ff ff ff       	jmp    1020 <_init+0x20>
    10de:	66 90                	xchg   %ax,%ax
    10e0:	f3 0f 1e fa          	endbr64
    10e4:	68 0b 00 00 00       	push   $0xb
    10e9:	e9 32 ff ff ff       	jmp    1020 <_init+0x20>
    10ee:	66 90                	xchg   %ax,%ax
    10f0:	f3 0f 1e fa          	endbr64
    10f4:	68 0c 00 00 00       	push   $0xc
    10f9:	e9 22 ff ff ff       	jmp    1020 <_init+0x20>
    10fe:	66 90                	xchg   %ax,%ax
    1100:	f3 0f 1e fa          	endbr64
    1104:	68 0d 00 00 00       	push   $0xd
    1109:	e9 12 ff ff ff       	jmp    1020 <_init+0x20>
    110e:	66 90                	xchg   %ax,%ax
    1110:	f3 0f 1e fa          	endbr64
    1114:	68 0e 00 00 00       	push   $0xe
    1119:	e9 02 ff ff ff       	jmp    1020 <_init+0x20>
    111e:	66 90                	xchg   %ax,%ax
    1120:	f3 0f 1e fa          	endbr64
    1124:	68 0f 00 00 00       	push   $0xf
    1129:	e9 f2 fe ff ff       	jmp    1020 <_init+0x20>
    112e:	66 90                	xchg   %ax,%ax
    1130:	f3 0f 1e fa          	endbr64
    1134:	68 10 00 00 00       	push   $0x10
    1139:	e9 e2 fe ff ff       	jmp    1020 <_init+0x20>
    113e:	66 90                	xchg   %ax,%ax
    1140:	f3 0f 1e fa          	endbr64
    1144:	68 11 00 00 00       	push   $0x11
    1149:	e9 d2 fe ff ff       	jmp    1020 <_init+0x20>
    114e:	66 90                	xchg   %ax,%ax

Disassembly of section .plt.got:

0000000000001150 <__cxa_finalize@plt>:
    1150:	f3 0f 1e fa          	endbr64
    1154:	ff 25 7e 7e 00 00    	jmp    *0x7e7e(%rip)        # 8fd8 <__cxa_finalize@GLIBC_2.2.5>
    115a:	66 0f 1f 44 00 00    	nopw   0x0(%rax,%rax,1)

Disassembly of section .plt.sec:

0000000000001160 <_ZNSo3putEc@plt>:
    1160:	f3 0f 1e fa          	endbr64
    1164:	ff 25 de 7d 00 00    	jmp    *0x7dde(%rip)        # 8f48 <_ZNSo3putEc@GLIBCXX_3.4>
    116a:	66 0f 1f 44 00 00    	nopw   0x0(%rax,%rax,1)

0000000000001170 <_ZSt29_Rb_tree_insert_and_rebalancebPSt18_Rb_tree_node_baseS0_RS_@plt>:
    1170:	f3 0f 1e fa          	endbr64
    1174:	ff 25 d6 7d 00 00    	jmp    *0x7dd6(%rip)        # 8f50 <_ZSt29_Rb_tree_insert_and_rebalancebPSt18_Rb_tree_node_baseS0_RS_@GLIBCXX_3.4>
    117a:	66 0f 1f 44 00 00    	nopw   0x0(%rax,%rax,1)

0000000000001180 <_ZSt17__throw_bad_allocv@plt>:
    1180:	f3 0f 1e fa          	endbr64
    1184:	ff 25 ce 7d 00 00    	jmp    *0x7dce(%rip)        # 8f58 <_ZSt17__throw_bad_allocv@GLIBCXX_3.4>
    118a:	66 0f 1f 44 00 00    	nopw   0x0(%rax,%rax,1)

0000000000001190 <_ZSt20__throw_length_errorPKc@plt>:
    1190:	f3 0f 1e fa          	endbr64
    1194:	ff 25 c6 7d 00 00    	jmp    *0x7dc6(%rip)        # 8f60 <_ZSt20__throw_length_errorPKc@GLIBCXX_3.4>
    119a:	66 0f 1f 44 00 00    	nopw   0x0(%rax,%rax,1)

00000000000011a0 <memset@plt>:
    11a0:	f3 0f 1e fa          	endbr64
    11a4:	ff 25 be 7d 00 00    	jmp    *0x7dbe(%rip)        # 8f68 <memset@GLIBC_2.2.5>
    11aa:	66 0f 1f 44 00 00    	nopw   0x0(%rax,%rax,1)

00000000000011b0 <_ZNSirsERi@plt>:
    11b0:	f3 0f 1e fa          	endbr64
    11b4:	ff 25 b6 7d 00 00    	jmp    *0x7db6(%rip)        # 8f70 <_ZNSirsERi@GLIBCXX_3.4>
    11ba:	66 0f 1f 44 00 00    	nopw   0x0(%rax,%rax,1)

00000000000011c0 <_ZNSo5flushEv@plt>:
    11c0:	f3 0f 1e fa          	endbr64
    11c4:	ff 25 ae 7d 00 00    	jmp    *0x7dae(%rip)        # 8f78 <_ZNSo5flushEv@GLIBCXX_3.4>
    11ca:	66 0f 1f 44 00 00    	nopw   0x0(%rax,%rax,1)

00000000000011d0 <_ZSt18_Rb_tree_incrementPSt18_Rb_tree_node_base@plt>:
    11d0:	f3 0f 1e fa          	endbr64
    11d4:	ff 25 a6 7d 00 00    	jmp    *0x7da6(%rip)        # 8f80 <_ZSt18_Rb_tree_incrementPSt18_Rb_tree_node_base@GLIBCXX_3.4>
    11da:	66 0f 1f 44 00 00    	nopw   0x0(%rax,%rax,1)

00000000000011e0 <_ZSt28__throw_bad_array_new_lengthv@plt>:
    11e0:	f3 0f 1e fa          	endbr64
    11e4:	ff 25 9e 7d 00 00    	jmp    *0x7d9e(%rip)        # 8f88 <_ZSt28__throw_bad_array_new_lengthv@GLIBCXX_3.4.29>
    11ea:	66 0f 1f 44 00 00    	nopw   0x0(%rax,%rax,1)

00000000000011f0 <_Znwm@plt>:
    11f0:	f3 0f 1e fa          	endbr64
    11f4:	ff 25 96 7d 00 00    	jmp    *0x7d96(%rip)        # 8f90 <_Znwm@GLIBCXX_3.4>
    11fa:	66 0f 1f 44 00 00    	nopw   0x0(%rax,%rax,1)

0000000000001200 <_ZdlPvm@plt>:
    1200:	f3 0f 1e fa          	endbr64
    1204:	ff 25 8e 7d 00 00    	jmp    *0x7d8e(%rip)        # 8f98 <_ZdlPvm@CXXABI_1.3.9>
    120a:	66 0f 1f 44 00 00    	nopw   0x0(%rax,%rax,1)

0000000000001210 <_ZSt18_Rb_tree_decrementPSt18_Rb_tree_node_base@plt>:
    1210:	f3 0f 1e fa          	endbr64
    1214:	ff 25 86 7d 00 00    	jmp    *0x7d86(%rip)        # 8fa0 <_ZSt18_Rb_tree_decrementPSt18_Rb_tree_node_base@GLIBCXX_3.4>
    121a:	66 0f 1f 44 00 00    	nopw   0x0(%rax,%rax,1)

0000000000001220 <__stack_chk_fail@plt>:
    1220:	f3 0f 1e fa          	endbr64
    1224:	ff 25 7e 7d 00 00    	jmp    *0x7d7e(%rip)        # 8fa8 <__stack_chk_fail@GLIBC_2.4>
    122a:	66 0f 1f 44 00 00    	nopw   0x0(%rax,%rax,1)

0000000000001230 <_ZNKSt5ctypeIcE13_M_widen_initEv@plt>:
    1230:	f3 0f 1e fa          	endbr64
    1234:	ff 25 76 7d 00 00    	jmp    *0x7d76(%rip)        # 8fb0 <_ZNKSt5ctypeIcE13_M_widen_initEv@GLIBCXX_3.4.11>
    123a:	66 0f 1f 44 00 00    	nopw   0x0(%rax,%rax,1)

0000000000001240 <_ZSt16__throw_bad_castv@plt>:
    1240:	f3 0f 1e fa          	endbr64
    1244:	ff 25 6e 7d 00 00    	jmp    *0x7d6e(%rip)        # 8fb8 <_ZSt16__throw_bad_castv@GLIBCXX_3.4>
    124a:	66 0f 1f 44 00 00    	nopw   0x0(%rax,%rax,1)

0000000000001250 <memmove@plt>:
    1250:	f3 0f 1e fa          	endbr64
    1254:	ff 25 66 7d 00 00    	jmp    *0x7d66(%rip)        # 8fc0 <memmove@GLIBC_2.2.5>
    125a:	66 0f 1f 44 00 00    	nopw   0x0(%rax,%rax,1)

0000000000001260 <_ZNSolsEi@plt>:
    1260:	f3 0f 1e fa          	endbr64
    1264:	ff 25 5e 7d 00 00    	jmp    *0x7d5e(%rip)        # 8fc8 <_ZNSolsEi@GLIBCXX_3.4>
    126a:	66 0f 1f 44 00 00    	nopw   0x0(%rax,%rax,1)

0000000000001270 <_Unwind_Resume@plt>:
    1270:	f3 0f 1e fa          	endbr64
    1274:	ff 25 56 7d 00 00    	jmp    *0x7d56(%rip)        # 8fd0 <_Unwind_Resume@GCC_3.0>
    127a:	66 0f 1f 44 00 00    	nopw   0x0(%rax,%rax,1)

Disassembly of section .text:

0000000000001280 <main.cold>:
    1280:	4c 89 e7             	mov    %r12,%rdi
    1283:	e8 88 20 00 00       	call   3310 <_ZN5GraphD1Ev>
    1288:	48 8b 84 24 b8 00 00 	mov    0xb8(%rsp),%rax
    128f:	00 
    1290:	64 48 2b 04 25 28 00 	sub    %fs:0x28,%rax
    1297:	00 00 
    1299:	75 08                	jne    12a3 <main.cold+0x23>
    129b:	48 89 df             	mov    %rbx,%rdi
    129e:	e8 cd ff ff ff       	call   1270 <_Unwind_Resume@plt>
    12a3:	e8 78 ff ff ff       	call   1220 <__stack_chk_fail@plt>
    12a8:	0f 1f 84 00 00 00 00 	nopl   0x0(%rax,%rax,1)
    12af:	00 

00000000000012b0 <main>:
	}

}; 

int main() 
{ 
    12b0:	f3 0f 1e fa          	endbr64
    12b4:	41 57                	push   %r15
    12b6:	41 56                	push   %r14
    12b8:	41 55                	push   %r13
    12ba:	41 54                	push   %r12
    12bc:	55                   	push   %rbp
	int V, E; 
	int threshold;  

	cin >> V;
    12bd:	48 8d 2d 9c 7e 00 00 	lea    0x7e9c(%rip),%rbp        # 9160 <_ZSt3cin@GLIBCXX_3.4>
{ 
    12c4:	53                   	push   %rbx
	cin >> V;
    12c5:	48 89 ef             	mov    %rbp,%rdi
{ 
    12c8:	48 81 ec c8 00 00 00 	sub    $0xc8,%rsp
    12cf:	64 48 8b 04 25 28 00 	mov    %fs:0x28,%rax
    12d6:	00 00 
    12d8:	48 89 84 24 b8 00 00 	mov    %rax,0xb8(%rsp)
    12df:	00 
    12e0:	31 c0                	xor    %eax,%eax
	cin >> V;
    12e2:	48 8d 74 24 34       	lea    0x34(%rsp),%rsi
    12e7:	e8 c4 fe ff ff       	call   11b0 <_ZNSirsERi@plt>
	cin >> E;
    12ec:	48 8d 74 24 38       	lea    0x38(%rsp),%rsi
    12f1:	48 89 ef             	mov    %rbp,%rdi
    12f4:	e8 b7 fe ff ff       	call   11b0 <_ZNSirsERi@plt>
	cin >> threshold;
    12f9:	48 8d 74 24 3c       	lea    0x3c(%rsp),%rsi
    12fe:	48 89 ef             	mov    %rbp,%rdi
    1301:	e8 aa fe ff ff       	call   11b0 <_ZNSirsERi@plt>
	Graph g(V, E); 
    1306:	8b 44 24 34          	mov    0x34(%rsp),%eax
	pointer _M_finish;
	pointer _M_end_of_storage;

	_GLIBCXX20_CONSTEXPR
	_Vector_impl_data() _GLIBCXX_NOEXCEPT
	: _M_start(), _M_finish(), _M_end_of_storage()
    130a:	66 0f ef c0          	pxor   %xmm0,%xmm0
    130e:	48 c7 84 24 98 00 00 	movq   $0x0,0x98(%rsp)
    1315:	00 00 00 00 00 
    131a:	0f 11 44 24 58       	movups %xmm0,0x58(%rsp)
		this->E = V-1;
    131f:	8d 50 ff             	lea    -0x1(%rax),%edx
    1322:	0f 11 44 24 68       	movups %xmm0,0x68(%rsp)
    1327:	0f 11 44 24 78       	movups %xmm0,0x78(%rsp)
		this->V = V; 
    132c:	66 0f 6e da          	movd   %edx,%xmm3
    1330:	0f 11 84 24 88 00 00 	movups %xmm0,0x88(%rsp)
    1337:	00 
    1338:	66 0f 6e c0          	movd   %eax,%xmm0
 

	int u, v, w, r;

	for (int i=0; i< E; i++){
    133c:	8b 44 24 38          	mov    0x38(%rsp),%eax
	{ 
    1340:	48 c7 84 24 a0 00 00 	movq   $0x0,0xa0(%rsp)
    1347:	00 00 00 00 00 
		this->V = V; 
    134c:	66 0f 62 c3          	punpckldq %xmm3,%xmm0
	{ 
    1350:	c7 84 24 a8 00 00 00 	movl   $0x0,0xa8(%rsp)
    1357:	00 00 00 00 
		this->V = V; 
    135b:	66 0f d6 44 24 50    	movq   %xmm0,0x50(%rsp)
	for (int i=0; i< E; i++){
    1361:	85 c0                	test   %eax,%eax
    1363:	0f 8e 07 01 00 00    	jle    1470 <main+0x1c0>
    1369:	48 8d 44 24 40       	lea    0x40(%rsp),%rax
    136e:	45 31 f6             	xor    %r14d,%r14d
    1371:	4c 8d 6c 24 50       	lea    0x50(%rsp),%r13
    1376:	48 89 44 24 08       	mov    %rax,0x8(%rsp)
    137b:	eb 5e                	jmp    13db <main+0x12b>
    137d:	0f 1f 00             	nopl   (%rax)
      void
#endif
      vector<_Tp, _Alloc>::
      emplace_back(_Args&&... __args)
      {
	if (this->_M_impl._M_finish != this->_M_impl._M_end_of_storage)
    1380:	48 8b 84 24 98 00 00 	mov    0x98(%rsp),%rax
    1387:	00 
    1388:	48 8b 9c 24 90 00 00 	mov    0x90(%rsp),%rbx
    138f:	00 
    1390:	48 89 44 24 10       	mov    %rax,0x10(%rsp)
    1395:	48 39 c3             	cmp    %rax,%rbx
    1398:	0f 84 52 01 00 00    	je     14f0 <main+0x240>
  template<typename _Tp, typename... _Args>
    constexpr auto
    construct_at(_Tp* __location, _Args&&... __args)
    noexcept(noexcept(::new((void*)0) _Tp(std::declval<_Args>()...)))
    -> decltype(::new((void*)0) _Tp(std::declval<_Args>()...))
    { return ::new((void*)__location) _Tp(std::forward<_Args>(__args)...); }
    139e:	66 0f 6e 4c 24 04    	movd   0x4(%rsp),%xmm1
    13a4:	8b 04 24             	mov    (%rsp),%eax
    13a7:	66 41 0f 6e c7       	movd   %r15d,%xmm0
	  {
	    _GLIBCXX_ASAN_ANNOTATE_GROW(1);
	    _Alloc_traits::construct(this->_M_impl, this->_M_impl._M_finish,
				     std::forward<_Args>(__args)...);
	    ++this->_M_impl._M_finish;
    13ac:	48 83 c3 0c          	add    $0xc,%rbx
    13b0:	66 0f 62 c1          	punpckldq %xmm1,%xmm0
    13b4:	89 43 fc             	mov    %eax,-0x4(%rbx)
    13b7:	66 0f d6 43 f4       	movq   %xmm0,-0xc(%rbx)
    13bc:	48 89 9c 24 90 00 00 	mov    %rbx,0x90(%rsp)
    13c3:	00 
		weight += w;
    13c4:	44 01 bc 24 a8 00 00 	add    %r15d,0xa8(%rsp)
    13cb:	00 
	for (int i=0; i< E; i++){
    13cc:	41 83 c6 01          	add    $0x1,%r14d
    13d0:	44 39 74 24 38       	cmp    %r14d,0x38(%rsp)
    13d5:	0f 8e 95 00 00 00    	jle    1470 <main+0x1c0>
		cin >> u;
    13db:	48 8b 74 24 08       	mov    0x8(%rsp),%rsi
    13e0:	48 89 ef             	mov    %rbp,%rdi
    13e3:	4d 89 ec             	mov    %r13,%r12
    13e6:	e8 c5 fd ff ff       	call   11b0 <_ZNSirsERi@plt>
		cin >> v;
    13eb:	48 8d 74 24 44       	lea    0x44(%rsp),%rsi
    13f0:	48 89 ef             	mov    %rbp,%rdi
    13f3:	e8 b8 fd ff ff       	call   11b0 <_ZNSirsERi@plt>
		cin >> w;
    13f8:	48 8d 74 24 48       	lea    0x48(%rsp),%rsi
    13fd:	48 89 ef             	mov    %rbp,%rdi
    1400:	e8 ab fd ff ff       	call   11b0 <_ZNSirsERi@plt>
		cin >> r;
    1405:	48 8d 74 24 4c       	lea    0x4c(%rsp),%rsi
    140a:	48 89 ef             	mov    %rbp,%rdi
    140d:	e8 9e fd ff ff       	call   11b0 <_ZNSirsERi@plt>
		g.addEdge(u, v, w, r); 
    1412:	8b 44 24 44          	mov    0x44(%rsp),%eax
		if (red == 1) {
    1416:	83 7c 24 4c 01       	cmpl   $0x1,0x4c(%rsp)
		g.addEdge(u, v, w, r); 
    141b:	44 8b 7c 24 48       	mov    0x48(%rsp),%r15d
    1420:	89 04 24             	mov    %eax,(%rsp)
    1423:	8b 44 24 40          	mov    0x40(%rsp),%eax
    1427:	89 44 24 04          	mov    %eax,0x4(%rsp)
		if (red == 1) {
    142b:	0f 85 4f ff ff ff    	jne    1380 <main+0xd0>
	if (this->_M_impl._M_finish != this->_M_impl._M_end_of_storage)
    1431:	48 8b 44 24 68       	mov    0x68(%rsp),%rax
    1436:	48 8b 5c 24 60       	mov    0x60(%rsp),%rbx
    143b:	48 89 44 24 10       	mov    %rax,0x10(%rsp)
    1440:	48 39 c3             	cmp    %rax,%rbx
    1443:	0f 84 ab 01 00 00    	je     15f4 <main+0x344>
    1449:	8b 04 24             	mov    (%rsp),%eax
    144c:	66 0f 6e 54 24 04    	movd   0x4(%rsp),%xmm2
    1452:	66 41 0f 6e c7       	movd   %r15d,%xmm0
    1457:	89 43 08             	mov    %eax,0x8(%rbx)
    145a:	66 0f 62 c2          	punpckldq %xmm2,%xmm0
	    ++this->_M_impl._M_finish;
    145e:	48 8d 43 0c          	lea    0xc(%rbx),%rax
    1462:	48 89 44 24 60       	mov    %rax,0x60(%rsp)
    1467:	66 0f d6 03          	movq   %xmm0,(%rbx)
    146b:	e9 54 ff ff ff       	jmp    13c4 <main+0x114>
 	}

	pair <int, int> res = g.idk2(threshold);
    1470:	4c 8d 64 24 50       	lea    0x50(%rsp),%r12
    1475:	8b 74 24 3c          	mov    0x3c(%rsp),%esi
    1479:	4c 89 e7             	mov    %r12,%rdi
    147c:	e8 2f 3e 00 00       	call   52b0 <_ZN5Graph4idk2Ei>
	cout << res.first << endl;
    1481:	48 8d 2d b8 7b 00 00 	lea    0x7bb8(%rip),%rbp        # 9040 <_ZSt4cout@GLIBCXX_3.4>
    1488:	89 c6                	mov    %eax,%esi
	pair <int, int> res = g.idk2(threshold);
    148a:	48 89 c3             	mov    %rax,%rbx
	cout << res.first << endl;
    148d:	48 89 ef             	mov    %rbp,%rdi
    1490:	e8 cb fd ff ff       	call   1260 <_ZNSolsEi@plt>
    1495:	48 89 c7             	mov    %rax,%rdi
      operator<<(__ostream_type& (*__pf)(__ostream_type&))
      {
	// _GLIBCXX_RESOLVE_LIB_DEFECTS
	// DR 60. What is a formatted input function?
	// The inserters for manipulators are *not* formatted output functions.
	return __pf(*this);
    1498:	e8 a3 04 00 00       	call   1940 <_ZSt4endlIcSt11char_traitsIcEERSt13basic_ostreamIT_T0_ES6_.isra.0>
	cout << res.second << endl;
    149d:	48 c1 eb 20          	shr    $0x20,%rbx
    14a1:	48 89 ef             	mov    %rbp,%rdi
    14a4:	89 de                	mov    %ebx,%esi
    14a6:	e8 b5 fd ff ff       	call   1260 <_ZNSolsEi@plt>
    14ab:	48 89 c7             	mov    %rax,%rdi
    14ae:	e8 8d 04 00 00       	call   1940 <_ZSt4endlIcSt11char_traitsIcEERSt13basic_ostreamIT_T0_ES6_.isra.0>

	return 0; 
} 
    14b3:	4c 89 e7             	mov    %r12,%rdi
    14b6:	e8 55 1e 00 00       	call   3310 <_ZN5GraphD1Ev>
    14bb:	48 8b 84 24 b8 00 00 	mov    0xb8(%rsp),%rax
    14c2:	00 
    14c3:	64 48 2b 04 25 28 00 	sub    %fs:0x28,%rax
    14ca:	00 00 
    14cc:	0f 85 1d 03 00 00    	jne    17ef <main+0x53f>
    14d2:	48 81 c4 c8 00 00 00 	add    $0xc8,%rsp
    14d9:	31 c0                	xor    %eax,%eax
    14db:	5b                   	pop    %rbx
    14dc:	5d                   	pop    %rbp
    14dd:	41 5c                	pop    %r12
    14df:	41 5d                	pop    %r13
    14e1:	41 5e                	pop    %r14
    14e3:	41 5f                	pop    %r15
    14e5:	c3                   	ret
    14e6:	66 2e 0f 1f 84 00 00 	cs nopw 0x0(%rax,%rax,1)
    14ed:	00 00 00 
#if __cplusplus >= 201103L
  template<typename _Tp, typename _Alloc>
    template<typename... _Args>
      _GLIBCXX20_CONSTEXPR
      void
      vector<_Tp, _Alloc>::
    14f0:	48 8b 8c 24 88 00 00 	mov    0x88(%rsp),%rcx
    14f7:	00 
      // [23.2.4.2] capacity
      /**  Returns the number of elements in the %vector.  */
      _GLIBCXX_NODISCARD _GLIBCXX20_CONSTEXPR
      size_type
      size() const _GLIBCXX_NOEXCEPT
      { return size_type(this->_M_impl._M_finish - this->_M_impl._M_start); }
    14f8:	48 89 d8             	mov    %rbx,%rax
    14fb:	48 ba ab aa aa aa aa 	movabs $0xaaaaaaaaaaaaaaab,%rdx
    1502:	aa aa aa 
    1505:	48 29 c8             	sub    %rcx,%rax
    1508:	48 89 4c 24 18       	mov    %rcx,0x18(%rsp)
    150d:	48 89 44 24 28       	mov    %rax,0x28(%rsp)
    1512:	48 c1 f8 02          	sar    $0x2,%rax
    1516:	48 0f af c2          	imul   %rdx,%rax
      // Called by _M_fill_insert, _M_insert_aux etc.
      _GLIBCXX20_CONSTEXPR
      size_type
      _M_check_len(size_type __n, const char* __s) const
      {
	if (max_size() - size() < __n)
    151a:	48 ba aa aa aa aa aa 	movabs $0xaaaaaaaaaaaaaaa,%rdx
    1521:	aa aa 0a 
    1524:	48 39 d0             	cmp    %rdx,%rax
    1527:	0f 84 eb 02 00 00    	je     1818 <main+0x568>
    max(const _Tp& __a, const _Tp& __b)
    {
      // concept requirements
      __glibcxx_function_requires(_LessThanComparableConcept<_Tp>)
      //return  __a < __b ? __b : __a;
      if (__a < __b)
    152d:	48 8b 4c 24 18       	mov    0x18(%rsp),%rcx
    1532:	48 39 cb             	cmp    %rcx,%rbx
    1535:	0f 84 dd 01 00 00    	je     1718 <main+0x468>
	  __throw_length_error(__N(__s));

	const size_type __len = size() + (std::max)(size(), __n);
    153b:	48 8d 0c 00          	lea    (%rax,%rax,1),%rcx
    153f:	48 89 4c 24 20       	mov    %rcx,0x20(%rsp)
	return (__len < size() || __len > max_size()) ? max_size() : __len;
    1544:	48 39 c1             	cmp    %rax,%rcx
    1547:	0f 82 33 02 00 00    	jb     1780 <main+0x4d0>
	return __n != 0 ? _Tr::allocate(_M_impl, __n) : pointer();
    154d:	48 85 c9             	test   %rcx,%rcx
    1550:	0f 85 7e 02 00 00    	jne    17d4 <main+0x524>
    1556:	48 8b 44 24 28       	mov    0x28(%rsp),%rax
    155b:	8b 14 24             	mov    (%rsp),%edx
    155e:	66 41 0f 6e c7       	movd   %r15d,%xmm0
    1563:	45 31 e4             	xor    %r12d,%r12d
    1566:	66 0f 6e 74 24 04    	movd   0x4(%rsp),%xmm6
    156c:	89 50 08             	mov    %edx,0x8(%rax)
    156f:	66 0f 62 c6          	punpckldq %xmm6,%xmm0
    1573:	66 0f d6 00          	movq   %xmm0,(%rax)
	_ValueType;
      typedef typename iterator_traits<_ForwardIterator>::value_type
	_ValueType2;
      static_assert(std::is_same<_ValueType, _ValueType2>::value,
	  "relocation is only possible for values of the same type");
      _ForwardIterator __cur = __result;
    1577:	31 c0                	xor    %eax,%eax
      for (; __first != __last; ++__first, (void)++__cur)
    1579:	48 8b 54 24 18       	mov    0x18(%rsp),%rdx
    157e:	66 90                	xchg   %ax,%ax
    1580:	48 8b 0a             	mov    (%rdx),%rcx
    1583:	48 83 c2 0c          	add    $0xc,%rdx
    1587:	48 83 c0 0c          	add    $0xc,%rax
    158b:	48 89 48 f4          	mov    %rcx,-0xc(%rax)
    158f:	8b 4a fc             	mov    -0x4(%rdx),%ecx
    1592:	89 48 fc             	mov    %ecx,-0x4(%rax)
    1595:	48 39 d3             	cmp    %rdx,%rbx
    1598:	75 e6                	jne    1580 <main+0x2d0>
    159a:	48 8b 44 24 18       	mov    0x18(%rsp),%rax
    159f:	48 83 eb 0c          	sub    $0xc,%rbx
    15a3:	48 29 c3             	sub    %rax,%rbx
    15a6:	48 c1 eb 02          	shr    $0x2,%rbx
    15aa:	49 8d 44 9c 0c       	lea    0xc(%r12,%rbx,4),%rax
	if (__p)
    15af:	48 8b 7c 24 18       	mov    0x18(%rsp),%rdi
	  if _GLIBCXX17_CONSTEXPR (_S_use_relocate())
	    {
	      __new_finish = _S_relocate(__old_start, __position.base(),
					 __new_start, _M_get_Tp_allocator());

	      ++__new_finish;
    15b4:	48 8d 58 0c          	lea    0xc(%rax),%rbx
    15b8:	48 85 ff             	test   %rdi,%rdi
    15bb:	74 0d                	je     15ca <main+0x31a>
      if _GLIBCXX17_CONSTEXPR (!_S_use_relocate())
#endif
	std::_Destroy(__old_start, __old_finish, _M_get_Tp_allocator());
      _GLIBCXX_ASAN_ANNOTATE_REINIT;
      _M_deallocate(__old_start,
		    this->_M_impl._M_end_of_storage - __old_start);
    15bd:	48 8b 74 24 10       	mov    0x10(%rsp),%rsi
    15c2:	48 29 fe             	sub    %rdi,%rsi
	    _GLIBCXX_OPERATOR_DELETE(_GLIBCXX_SIZED_DEALLOC(__p, __n),
				     std::align_val_t(alignof(_Tp)));
	    return;
	  }
#endif
	_GLIBCXX_OPERATOR_DELETE(_GLIBCXX_SIZED_DEALLOC(__p, __n));
    15c5:	e8 36 fc ff ff       	call   1200 <_ZdlPvm@plt>
      this->_M_impl._M_start = __new_start;
      this->_M_impl._M_finish = __new_finish;
      this->_M_impl._M_end_of_storage = __new_start + __len;
    15ca:	48 8b 44 24 20       	mov    0x20(%rsp),%rax
      this->_M_impl._M_start = __new_start;
    15cf:	4c 89 a4 24 88 00 00 	mov    %r12,0x88(%rsp)
    15d6:	00 
      this->_M_impl._M_finish = __new_finish;
    15d7:	48 89 9c 24 90 00 00 	mov    %rbx,0x90(%rsp)
    15de:	00 
      this->_M_impl._M_end_of_storage = __new_start + __len;
    15df:	48 8d 04 40          	lea    (%rax,%rax,2),%rax
    15e3:	49 8d 04 84          	lea    (%r12,%rax,4),%rax
    15e7:	48 89 84 24 98 00 00 	mov    %rax,0x98(%rsp)
    15ee:	00 
    15ef:	e9 d0 fd ff ff       	jmp    13c4 <main+0x114>
      vector<_Tp, _Alloc>::
    15f4:	48 8b 54 24 58       	mov    0x58(%rsp),%rdx
      { return size_type(this->_M_impl._M_finish - this->_M_impl._M_start); }
    15f9:	48 89 d8             	mov    %rbx,%rax
    15fc:	48 29 d0             	sub    %rdx,%rax
    15ff:	48 89 54 24 18       	mov    %rdx,0x18(%rsp)
    1604:	48 ba ab aa aa aa aa 	movabs $0xaaaaaaaaaaaaaaab,%rdx
    160b:	aa aa aa 
    160e:	48 89 44 24 28       	mov    %rax,0x28(%rsp)
    1613:	48 c1 f8 02          	sar    $0x2,%rax
    1617:	48 0f af c2          	imul   %rdx,%rax
	if (max_size() - size() < __n)
    161b:	48 ba aa aa aa aa aa 	movabs $0xaaaaaaaaaaaaaaa,%rdx
    1622:	aa aa 0a 
    1625:	48 39 d0             	cmp    %rdx,%rax
    1628:	0f 84 c6 01 00 00    	je     17f4 <main+0x544>
    162e:	48 8b 7c 24 18       	mov    0x18(%rsp),%rdi
    1633:	48 39 fb             	cmp    %rdi,%rbx
    1636:	0f 84 4b 01 00 00    	je     1787 <main+0x4d7>
	const size_type __len = size() + (std::max)(size(), __n);
    163c:	48 8d 0c 00          	lea    (%rax,%rax,1),%rcx
    1640:	48 89 4c 24 20       	mov    %rcx,0x20(%rsp)
	return (__len < size() || __len > max_size()) ? max_size() : __len;
    1645:	48 39 c1             	cmp    %rax,%rcx
    1648:	0f 82 44 01 00 00    	jb     1792 <main+0x4e2>
	return __n != 0 ? _Tr::allocate(_M_impl, __n) : pointer();
    164e:	45 31 e4             	xor    %r12d,%r12d
    1651:	48 85 c9             	test   %rcx,%rcx
    1654:	0f 85 55 01 00 00    	jne    17af <main+0x4ff>
	  _Alloc_traits::construct(this->_M_impl,
    165a:	48 8b 44 24 28       	mov    0x28(%rsp),%rax
    165f:	66 0f 6e 6c 24 04    	movd   0x4(%rsp),%xmm5
    1665:	66 41 0f 6e c7       	movd   %r15d,%xmm0
    166a:	8b 14 24             	mov    (%rsp),%edx
    166d:	4c 01 e0             	add    %r12,%rax
    1670:	66 0f 62 c5          	punpckldq %xmm5,%xmm0
    1674:	89 50 08             	mov    %edx,0x8(%rax)
    1677:	66 0f d6 00          	movq   %xmm0,(%rax)
    167b:	48 8b 44 24 18       	mov    0x18(%rsp),%rax
    1680:	48 39 c3             	cmp    %rax,%rbx
    1683:	0f 84 43 01 00 00    	je     17cc <main+0x51c>
      _ForwardIterator __cur = __result;
    1689:	4c 89 e2             	mov    %r12,%rdx
    168c:	0f 1f 40 00          	nopl   0x0(%rax)
    1690:	48 8b 08             	mov    (%rax),%rcx
      for (; __first != __last; ++__first, (void)++__cur)
    1693:	48 83 c0 0c          	add    $0xc,%rax
    1697:	48 83 c2 0c          	add    $0xc,%rdx
    169b:	48 89 4a f4          	mov    %rcx,-0xc(%rdx)
    169f:	8b 48 fc             	mov    -0x4(%rax),%ecx
    16a2:	89 4a fc             	mov    %ecx,-0x4(%rdx)
    16a5:	48 39 c3             	cmp    %rax,%rbx
    16a8:	75 e6                	jne    1690 <main+0x3e0>
    16aa:	48 8b 44 24 18       	mov    0x18(%rsp),%rax
    16af:	48 83 eb 0c          	sub    $0xc,%rbx
    16b3:	48 29 c3             	sub    %rax,%rbx
    16b6:	48 b8 ab aa aa aa aa 	movabs $0x2aaaaaaaaaaaaaab,%rax
    16bd:	aa aa 2a 
    16c0:	48 c1 eb 02          	shr    $0x2,%rbx
    16c4:	48 0f af d8          	imul   %rax,%rbx
    16c8:	48 b8 ff ff ff ff ff 	movabs $0x3fffffffffffffff,%rax
    16cf:	ff ff 3f 
    16d2:	48 21 c3             	and    %rax,%rbx
    16d5:	48 83 c3 01          	add    $0x1,%rbx
    16d9:	48 6b db 0c          	imul   $0xc,%rbx,%rbx
    16dd:	4c 01 e3             	add    %r12,%rbx
	if (__p)
    16e0:	48 8b 7c 24 18       	mov    0x18(%rsp),%rdi
	      ++__new_finish;
    16e5:	48 83 c3 0c          	add    $0xc,%rbx
    16e9:	48 85 ff             	test   %rdi,%rdi
    16ec:	74 0d                	je     16fb <main+0x44b>
		    this->_M_impl._M_end_of_storage - __old_start);
    16ee:	48 8b 74 24 10       	mov    0x10(%rsp),%rsi
    16f3:	48 29 fe             	sub    %rdi,%rsi
    16f6:	e8 05 fb ff ff       	call   1200 <_ZdlPvm@plt>
      this->_M_impl._M_end_of_storage = __new_start + __len;
    16fb:	48 6b 44 24 20 0c    	imul   $0xc,0x20(%rsp),%rax
      this->_M_impl._M_start = __new_start;
    1701:	4c 89 64 24 58       	mov    %r12,0x58(%rsp)
      this->_M_impl._M_finish = __new_finish;
    1706:	48 89 5c 24 60       	mov    %rbx,0x60(%rsp)
      this->_M_impl._M_end_of_storage = __new_start + __len;
    170b:	49 01 c4             	add    %rax,%r12
    170e:	4c 89 64 24 68       	mov    %r12,0x68(%rsp)
    1713:	e9 ac fc ff ff       	jmp    13c4 <main+0x114>
	return (__len < size() || __len > max_size()) ? max_size() : __len;
    1718:	48 89 54 24 20       	mov    %rdx,0x20(%rsp)
    171d:	48 83 c0 01          	add    $0x1,%rax
    1721:	72 16                	jb     1739 <main+0x489>
    1723:	48 ba aa aa aa aa aa 	movabs $0xaaaaaaaaaaaaaaa,%rdx
    172a:	aa aa 0a 
    172d:	48 39 d0             	cmp    %rdx,%rax
    1730:	48 0f 46 d0          	cmovbe %rax,%rdx
    1734:	48 89 54 24 20       	mov    %rdx,0x20(%rsp)
	return static_cast<_Tp*>(_GLIBCXX_OPERATOR_NEW(__n * sizeof(_Tp)));
    1739:	48 6b 7c 24 20 0c    	imul   $0xc,0x20(%rsp),%rdi
    173f:	4c 8d 64 24 50       	lea    0x50(%rsp),%r12
    1744:	e8 a7 fa ff ff       	call   11f0 <_Znwm@plt>
	  _Alloc_traits::construct(this->_M_impl,
    1749:	48 8b 54 24 28       	mov    0x28(%rsp),%rdx
    174e:	8b 3c 24             	mov    (%rsp),%edi
    1751:	66 41 0f 6e c7       	movd   %r15d,%xmm0
    1756:	49 89 c4             	mov    %rax,%r12
    1759:	66 0f 6e 64 24 04    	movd   0x4(%rsp),%xmm4
    175f:	48 01 c2             	add    %rax,%rdx
    1762:	66 0f 62 c4          	punpckldq %xmm4,%xmm0
    1766:	89 7a 08             	mov    %edi,0x8(%rdx)
    1769:	66 0f d6 02          	movq   %xmm0,(%rdx)
    176d:	48 8b 54 24 18       	mov    0x18(%rsp),%rdx
    1772:	48 39 d3             	cmp    %rdx,%rbx
    1775:	0f 85 fe fd ff ff    	jne    1579 <main+0x2c9>
    177b:	e9 2f fe ff ff       	jmp    15af <main+0x2ff>
    1780:	48 89 54 24 20       	mov    %rdx,0x20(%rsp)
    1785:	eb b2                	jmp    1739 <main+0x489>
    1787:	48 83 c0 01          	add    $0x1,%rax
	const size_type __len = size() + (std::max)(size(), __n);
    178b:	48 89 44 24 20       	mov    %rax,0x20(%rsp)
	return (__len < size() || __len > max_size()) ? max_size() : __len;
    1790:	73 1d                	jae    17af <main+0x4ff>
    1792:	48 89 54 24 20       	mov    %rdx,0x20(%rsp)
    1797:	48 6b 7c 24 20 0c    	imul   $0xc,0x20(%rsp),%rdi
    179d:	4c 8d 64 24 50       	lea    0x50(%rsp),%r12
    17a2:	e8 49 fa ff ff       	call   11f0 <_Znwm@plt>
    17a7:	49 89 c4             	mov    %rax,%r12
    17aa:	e9 ab fe ff ff       	jmp    165a <main+0x3aa>
    17af:	48 b8 aa aa aa aa aa 	movabs $0xaaaaaaaaaaaaaaa,%rax
    17b6:	aa aa 0a 
    17b9:	48 8b 54 24 20       	mov    0x20(%rsp),%rdx
    17be:	48 39 c2             	cmp    %rax,%rdx
    17c1:	48 0f 46 c2          	cmovbe %rdx,%rax
    17c5:	48 89 44 24 20       	mov    %rax,0x20(%rsp)
    17ca:	eb cb                	jmp    1797 <main+0x4e7>
      _ForwardIterator __cur = __result;
    17cc:	4c 89 e3             	mov    %r12,%rbx
    17cf:	e9 0c ff ff ff       	jmp    16e0 <main+0x430>
    17d4:	48 b8 aa aa aa aa aa 	movabs $0xaaaaaaaaaaaaaaa,%rax
    17db:	aa aa 0a 
    17de:	48 39 c1             	cmp    %rax,%rcx
    17e1:	48 0f 46 c1          	cmovbe %rcx,%rax
    17e5:	48 89 44 24 20       	mov    %rax,0x20(%rsp)
    17ea:	e9 4a ff ff ff       	jmp    1739 <main+0x489>
    17ef:	e8 2c fa ff ff       	call   1220 <__stack_chk_fail@plt>
	  __throw_length_error(__N(__s));
    17f4:	48 8b 84 24 b8 00 00 	mov    0xb8(%rsp),%rax
    17fb:	00 
    17fc:	64 48 2b 04 25 28 00 	sub    %fs:0x28,%rax
    1803:	00 00 
    1805:	75 e8                	jne    17ef <main+0x53f>
    1807:	48 8d 3d 2b 58 00 00 	lea    0x582b(%rip),%rdi        # 7039 <_IO_stdin_used+0x39>
    180e:	4c 8d 64 24 50       	lea    0x50(%rsp),%r12
    1813:	e8 78 f9 ff ff       	call   1190 <_ZSt20__throw_length_errorPKc@plt>
    1818:	48 8b 84 24 b8 00 00 	mov    0xb8(%rsp),%rax
    181f:	00 
    1820:	64 48 2b 04 25 28 00 	sub    %fs:0x28,%rax
    1827:	00 00 
    1829:	75 c4                	jne    17ef <main+0x53f>
    182b:	48 8d 3d 07 58 00 00 	lea    0x5807(%rip),%rdi        # 7039 <_IO_stdin_used+0x39>
    1832:	4c 8d 64 24 50       	lea    0x50(%rsp),%r12
    1837:	e8 54 f9 ff ff       	call   1190 <_ZSt20__throw_length_errorPKc@plt>
    183c:	f3 0f 1e fa          	endbr64
    1840:	48 89 c3             	mov    %rax,%rbx
    1843:	e9 38 fa ff ff       	jmp    1280 <main.cold>
    1848:	0f 1f 84 00 00 00 00 	nopl   0x0(%rax,%rax,1)
    184f:	00 

0000000000001850 <_start>:
    1850:	f3 0f 1e fa          	endbr64
    1854:	31 ed                	xor    %ebp,%ebp
    1856:	49 89 d1             	mov    %rdx,%r9
    1859:	5e                   	pop    %rsi
    185a:	48 89 e2             	mov    %rsp,%rdx
    185d:	48 83 e4 f0          	and    $0xfffffffffffffff0,%rsp
    1861:	50                   	push   %rax
    1862:	54                   	push   %rsp
    1863:	45 31 c0             	xor    %r8d,%r8d
    1866:	31 c9                	xor    %ecx,%ecx
    1868:	48 8d 3d 41 fa ff ff 	lea    -0x5bf(%rip),%rdi        # 12b0 <main>
    186f:	ff 15 6b 77 00 00    	call   *0x776b(%rip)        # 8fe0 <__libc_start_main@GLIBC_2.34>
    1875:	f4                   	hlt
    1876:	66 2e 0f 1f 84 00 00 	cs nopw 0x0(%rax,%rax,1)
    187d:	00 00 00 

0000000000001880 <deregister_tm_clones>:
    1880:	48 8d 3d 91 77 00 00 	lea    0x7791(%rip),%rdi        # 9018 <__TMC_END__>
    1887:	48 8d 05 8a 77 00 00 	lea    0x778a(%rip),%rax        # 9018 <__TMC_END__>
    188e:	48 39 f8             	cmp    %rdi,%rax
    1891:	74 15                	je     18a8 <deregister_tm_clones+0x28>
    1893:	48 8b 05 4e 77 00 00 	mov    0x774e(%rip),%rax        # 8fe8 <_ITM_deregisterTMCloneTable@Base>
    189a:	48 85 c0             	test   %rax,%rax
    189d:	74 09                	je     18a8 <deregister_tm_clones+0x28>
    189f:	ff e0                	jmp    *%rax
    18a1:	0f 1f 80 00 00 00 00 	nopl   0x0(%rax)
    18a8:	c3                   	ret
    18a9:	0f 1f 80 00 00 00 00 	nopl   0x0(%rax)

00000000000018b0 <register_tm_clones>:
    18b0:	48 8d 3d 61 77 00 00 	lea    0x7761(%rip),%rdi        # 9018 <__TMC_END__>
    18b7:	48 8d 35 5a 77 00 00 	lea    0x775a(%rip),%rsi        # 9018 <__TMC_END__>
    18be:	48 29 fe             	sub    %rdi,%rsi
    18c1:	48 89 f0             	mov    %rsi,%rax
    18c4:	48 c1 ee 3f          	shr    $0x3f,%rsi
    18c8:	48 c1 f8 03          	sar    $0x3,%rax
    18cc:	48 01 c6             	add    %rax,%rsi
    18cf:	48 d1 fe             	sar    $1,%rsi
    18d2:	74 14                	je     18e8 <register_tm_clones+0x38>
    18d4:	48 8b 05 1d 77 00 00 	mov    0x771d(%rip),%rax        # 8ff8 <_ITM_registerTMCloneTable@Base>
    18db:	48 85 c0             	test   %rax,%rax
    18de:	74 08                	je     18e8 <register_tm_clones+0x38>
    18e0:	ff e0                	jmp    *%rax
    18e2:	66 0f 1f 44 00 00    	nopw   0x0(%rax,%rax,1)
    18e8:	c3                   	ret
    18e9:	0f 1f 80 00 00 00 00 	nopl   0x0(%rax)

00000000000018f0 <__do_global_dtors_aux>:
    18f0:	f3 0f 1e fa          	endbr64
    18f4:	80 3d 7d 79 00 00 00 	cmpb   $0x0,0x797d(%rip)        # 9278 <completed.0>
    18fb:	75 2b                	jne    1928 <__do_global_dtors_aux+0x38>
    18fd:	55                   	push   %rbp
    18fe:	48 83 3d d2 76 00 00 	cmpq   $0x0,0x76d2(%rip)        # 8fd8 <__cxa_finalize@GLIBC_2.2.5>
    1905:	00 
    1906:	48 89 e5             	mov    %rsp,%rbp
    1909:	74 0c                	je     1917 <__do_global_dtors_aux+0x27>
    190b:	48 8b 3d f6 76 00 00 	mov    0x76f6(%rip),%rdi        # 9008 <__dso_handle>
    1912:	e8 39 f8 ff ff       	call   1150 <__cxa_finalize@plt>
    1917:	e8 64 ff ff ff       	call   1880 <deregister_tm_clones>
    191c:	c6 05 55 79 00 00 01 	movb   $0x1,0x7955(%rip)        # 9278 <completed.0>
    1923:	5d                   	pop    %rbp
    1924:	c3                   	ret
    1925:	0f 1f 00             	nopl   (%rax)
    1928:	c3                   	ret
    1929:	0f 1f 80 00 00 00 00 	nopl   0x0(%rax)

0000000000001930 <frame_dummy>:
    1930:	f3 0f 1e fa          	endbr64
    1934:	e9 77 ff ff ff       	jmp    18b0 <register_tm_clones>
    1939:	0f 1f 80 00 00 00 00 	nopl   0x0(%rax)

0000000000001940 <_ZSt4endlIcSt11char_traitsIcEERSt13basic_ostreamIT_T0_ES6_.isra.0>:
   *  https://gcc.gnu.org/onlinedocs/libstdc++/manual/streambufs.html#io.streambuf.buffering
   *  for more on this subject.
  */
  template<typename _CharT, typename _Traits>
    inline basic_ostream<_CharT, _Traits>&
    endl(basic_ostream<_CharT, _Traits>& __os)
    1940:	55                   	push   %rbp
    1941:	53                   	push   %rbx
    1942:	48 83 ec 08          	sub    $0x8,%rsp
    { return flush(__os.put(__os.widen('\n'))); }
    1946:	48 8b 07             	mov    (%rdi),%rax
    1949:	48 8b 40 e8          	mov    -0x18(%rax),%rax
    194d:	48 8b ac 07 f0 00 00 	mov    0xf0(%rdi,%rax,1),%rbp
    1954:	00 

  template<typename _Facet>
    inline const _Facet&
    __check_facet(const _Facet* __f)
    {
      if (!__f)
    1955:	48 85 ed             	test   %rbp,%rbp
    1958:	74 53                	je     19ad <_ZSt4endlIcSt11char_traitsIcEERSt13basic_ostreamIT_T0_ES6_.isra.0+0x6d>
       *  @return  The converted character.
      */
      char_type
      widen(char __c) const
      {
	if (_M_widen_ok)
    195a:	80 7d 38 00          	cmpb   $0x0,0x38(%rbp)
    195e:	48 89 fb             	mov    %rdi,%rbx
    1961:	74 1a                	je     197d <_ZSt4endlIcSt11char_traitsIcEERSt13basic_ostreamIT_T0_ES6_.isra.0+0x3d>
	  return _M_widen[static_cast<unsigned char>(__c)];
    1963:	0f be 75 43          	movsbl 0x43(%rbp),%esi
    1967:	48 89 df             	mov    %rbx,%rdi
    196a:	e8 f1 f7 ff ff       	call   1160 <_ZNSo3putEc@plt>
    196f:	48 83 c4 08          	add    $0x8,%rsp
    1973:	5b                   	pop    %rbx
    1974:	48 89 c7             	mov    %rax,%rdi
    1977:	5d                   	pop    %rbp
   *  This manipulator simply calls the stream's @c flush() member function.
  */
  template<typename _CharT, typename _Traits>
    inline basic_ostream<_CharT, _Traits>&
    flush(basic_ostream<_CharT, _Traits>& __os)
    { return __os.flush(); }
    1978:	e9 43 f8 ff ff       	jmp    11c0 <_ZNSo5flushEv@plt>
	this->_M_widen_init();
    197d:	48 89 ef             	mov    %rbp,%rdi
    1980:	e8 ab f8 ff ff       	call   1230 <_ZNKSt5ctypeIcE13_M_widen_initEv@plt>
	return this->do_widen(__c);
    1985:	48 8b 45 00          	mov    0x0(%rbp),%rax
    1989:	be 0a 00 00 00       	mov    $0xa,%esi
    198e:	48 8d 15 cb 02 00 00 	lea    0x2cb(%rip),%rdx        # 1c60 <_ZNKSt5ctypeIcE8do_widenEc>
    1995:	48 8b 40 30          	mov    0x30(%rax),%rax
    1999:	48 39 d0             	cmp    %rdx,%rax
    199c:	74 c9                	je     1967 <_ZSt4endlIcSt11char_traitsIcEERSt13basic_ostreamIT_T0_ES6_.isra.0+0x27>
    199e:	be 0a 00 00 00       	mov    $0xa,%esi
    19a3:	48 89 ef             	mov    %rbp,%rdi
    19a6:	ff d0                	call   *%rax
    19a8:	0f be f0             	movsbl %al,%esi
    19ab:	eb ba                	jmp    1967 <_ZSt4endlIcSt11char_traitsIcEERSt13basic_ostreamIT_T0_ES6_.isra.0+0x27>
	__throw_bad_cast();
    19ad:	e8 8e f8 ff ff       	call   1240 <_ZSt16__throw_bad_castv@plt>
    19b2:	66 66 2e 0f 1f 84 00 	data16 cs nopw 0x0(%rax,%rax,1)
    19b9:	00 00 00 00 
    19bd:	0f 1f 00             	nopl   (%rax)

00000000000019c0 <_ZNSt8_Rb_treeISt4pairIiiES0_IKS1_iESt10_Select1stIS3_ESt4lessIS1_ESaIS3_EE8_M_eraseEPSt13_Rb_tree_nodeIS3_E.isra.0>:
      }

  template<typename _Key, typename _Val, typename _KeyOfValue,
	   typename _Compare, typename _Alloc>
    void
    _Rb_tree<_Key, _Val, _KeyOfValue, _Compare, _Alloc>::
    19c0:	41 57                	push   %r15
    19c2:	41 56                	push   %r14
    19c4:	41 55                	push   %r13
    19c6:	41 54                	push   %r12
    19c8:	55                   	push   %rbp
    19c9:	53                   	push   %rbx
    19ca:	48 83 ec 28          	sub    $0x28,%rsp
    19ce:	48 89 7c 24 10       	mov    %rdi,0x10(%rsp)
    _M_erase(_Link_type __x)
    {
      // Erase without rebalancing.
      while (__x != 0)
    19d3:	48 85 ff             	test   %rdi,%rdi
    19d6:	0f 84 9e 01 00 00    	je     1b7a <_ZNSt8_Rb_treeISt4pairIiiES0_IKS1_iESt10_Select1stIS3_ESt4lessIS1_ESaIS3_EE8_M_eraseEPSt13_Rb_tree_nodeIS3_E.isra.0+0x1ba>
      { return static_cast<_Link_type>(__x->_M_right); }
    19dc:	48 8b 44 24 10       	mov    0x10(%rsp),%rax
    19e1:	48 8b 40 18          	mov    0x18(%rax),%rax
    19e5:	48 89 44 24 08       	mov    %rax,0x8(%rsp)
      while (__x != 0)
    19ea:	48 85 c0             	test   %rax,%rax
    19ed:	0f 84 65 01 00 00    	je     1b58 <_ZNSt8_Rb_treeISt4pairIiiES0_IKS1_iESt10_Select1stIS3_ESt4lessIS1_ESaIS3_EE8_M_eraseEPSt13_Rb_tree_nodeIS3_E.isra.0+0x198>
      { return static_cast<_Link_type>(__x->_M_right); }
    19f3:	48 8b 44 24 08       	mov    0x8(%rsp),%rax
    19f8:	4c 8b 70 18          	mov    0x18(%rax),%r14
      while (__x != 0)
    19fc:	4d 85 f6             	test   %r14,%r14
    19ff:	0f 84 31 01 00 00    	je     1b36 <_ZNSt8_Rb_treeISt4pairIiiES0_IKS1_iESt10_Select1stIS3_ESt4lessIS1_ESaIS3_EE8_M_eraseEPSt13_Rb_tree_nodeIS3_E.isra.0+0x176>
      { return static_cast<_Link_type>(__x->_M_right); }
    1a05:	4d 8b 7e 18          	mov    0x18(%r14),%r15
      while (__x != 0)
    1a09:	4d 85 ff             	test   %r15,%r15
    1a0c:	0f 84 06 01 00 00    	je     1b18 <_ZNSt8_Rb_treeISt4pairIiiES0_IKS1_iESt10_Select1stIS3_ESt4lessIS1_ESaIS3_EE8_M_eraseEPSt13_Rb_tree_nodeIS3_E.isra.0+0x158>
      { return static_cast<_Link_type>(__x->_M_right); }
    1a12:	49 8b 5f 18          	mov    0x18(%r15),%rbx
      while (__x != 0)
    1a16:	48 85 db             	test   %rbx,%rbx
    1a19:	0f 84 b0 00 00 00    	je     1acf <_ZNSt8_Rb_treeISt4pairIiiES0_IKS1_iESt10_Select1stIS3_ESt4lessIS1_ESaIS3_EE8_M_eraseEPSt13_Rb_tree_nodeIS3_E.isra.0+0x10f>
      { return static_cast<_Link_type>(__x->_M_right); }
    1a1f:	4c 8b 63 18          	mov    0x18(%rbx),%r12
      while (__x != 0)
    1a23:	4d 85 e4             	test   %r12,%r12
    1a26:	74 64                	je     1a8c <_ZNSt8_Rb_treeISt4pairIiiES0_IKS1_iESt10_Select1stIS3_ESt4lessIS1_ESaIS3_EE8_M_eraseEPSt13_Rb_tree_nodeIS3_E.isra.0+0xcc>
      { return static_cast<_Link_type>(__x->_M_right); }
    1a28:	49 8b 6c 24 18       	mov    0x18(%r12),%rbp
      while (__x != 0)
    1a2d:	48 85 ed             	test   %rbp,%rbp
    1a30:	74 7e                	je     1ab0 <_ZNSt8_Rb_treeISt4pairIiiES0_IKS1_iESt10_Select1stIS3_ESt4lessIS1_ESaIS3_EE8_M_eraseEPSt13_Rb_tree_nodeIS3_E.isra.0+0xf0>
      { return static_cast<_Link_type>(__x->_M_right); }
    1a32:	48 8b 55 18          	mov    0x18(%rbp),%rdx
      while (__x != 0)
    1a36:	48 85 d2             	test   %rdx,%rdx
    1a39:	0f 84 b1 00 00 00    	je     1af0 <_ZNSt8_Rb_treeISt4pairIiiES0_IKS1_iESt10_Select1stIS3_ESt4lessIS1_ESaIS3_EE8_M_eraseEPSt13_Rb_tree_nodeIS3_E.isra.0+0x130>
      { return static_cast<_Link_type>(__x->_M_right); }
    1a3f:	4c 8b 6a 18          	mov    0x18(%rdx),%r13
      while (__x != 0)
    1a43:	4d 85 ed             	test   %r13,%r13
    1a46:	74 29                	je     1a71 <_ZNSt8_Rb_treeISt4pairIiiES0_IKS1_iESt10_Select1stIS3_ESt4lessIS1_ESaIS3_EE8_M_eraseEPSt13_Rb_tree_nodeIS3_E.isra.0+0xb1>
	{
	  _M_erase(_S_right(__x));
    1a48:	49 8b 7d 18          	mov    0x18(%r13),%rdi
    1a4c:	48 89 54 24 18       	mov    %rdx,0x18(%rsp)
    1a51:	e8 6a ff ff ff       	call   19c0 <_ZNSt8_Rb_treeISt4pairIiiES0_IKS1_iESt10_Select1stIS3_ESt4lessIS1_ESaIS3_EE8_M_eraseEPSt13_Rb_tree_nodeIS3_E.isra.0>
      _S_left(_Base_ptr __x) _GLIBCXX_NOEXCEPT
    1a56:	4c 89 ef             	mov    %r13,%rdi
      { return static_cast<_Link_type>(__x->_M_left); }
    1a59:	4d 8b 6d 10          	mov    0x10(%r13),%r13
	_GLIBCXX_OPERATOR_DELETE(_GLIBCXX_SIZED_DEALLOC(__p, __n));
    1a5d:	be 30 00 00 00       	mov    $0x30,%esi
    1a62:	e8 99 f7 ff ff       	call   1200 <_ZdlPvm@plt>
      while (__x != 0)
    1a67:	48 8b 54 24 18       	mov    0x18(%rsp),%rdx
    1a6c:	4d 85 ed             	test   %r13,%r13
    1a6f:	75 d7                	jne    1a48 <_ZNSt8_Rb_treeISt4pairIiiES0_IKS1_iESt10_Select1stIS3_ESt4lessIS1_ESaIS3_EE8_M_eraseEPSt13_Rb_tree_nodeIS3_E.isra.0+0x88>
      { return static_cast<_Link_type>(__x->_M_left); }
    1a71:	4c 8b 6a 10          	mov    0x10(%rdx),%r13
    1a75:	be 30 00 00 00       	mov    $0x30,%esi
    1a7a:	48 89 d7             	mov    %rdx,%rdi
    1a7d:	e8 7e f7 ff ff       	call   1200 <_ZdlPvm@plt>
      while (__x != 0)
    1a82:	4d 85 ed             	test   %r13,%r13
    1a85:	74 69                	je     1af0 <_ZNSt8_Rb_treeISt4pairIiiES0_IKS1_iESt10_Select1stIS3_ESt4lessIS1_ESaIS3_EE8_M_eraseEPSt13_Rb_tree_nodeIS3_E.isra.0+0x130>
    1a87:	4c 89 ea             	mov    %r13,%rdx
    1a8a:	eb b3                	jmp    1a3f <_ZNSt8_Rb_treeISt4pairIiiES0_IKS1_iESt10_Select1stIS3_ESt4lessIS1_ESaIS3_EE8_M_eraseEPSt13_Rb_tree_nodeIS3_E.isra.0+0x7f>
      { return static_cast<_Link_type>(__x->_M_left); }
    1a8c:	48 8b 6b 10          	mov    0x10(%rbx),%rbp
    1a90:	be 30 00 00 00       	mov    $0x30,%esi
    1a95:	48 89 df             	mov    %rbx,%rdi
    1a98:	e8 63 f7 ff ff       	call   1200 <_ZdlPvm@plt>
      while (__x != 0)
    1a9d:	48 85 ed             	test   %rbp,%rbp
    1aa0:	74 2d                	je     1acf <_ZNSt8_Rb_treeISt4pairIiiES0_IKS1_iESt10_Select1stIS3_ESt4lessIS1_ESaIS3_EE8_M_eraseEPSt13_Rb_tree_nodeIS3_E.isra.0+0x10f>
    1aa2:	48 89 eb             	mov    %rbp,%rbx
    1aa5:	e9 75 ff ff ff       	jmp    1a1f <_ZNSt8_Rb_treeISt4pairIiiES0_IKS1_iESt10_Select1stIS3_ESt4lessIS1_ESaIS3_EE8_M_eraseEPSt13_Rb_tree_nodeIS3_E.isra.0+0x5f>
    1aaa:	66 0f 1f 44 00 00    	nopw   0x0(%rax,%rax,1)
      { return static_cast<_Link_type>(__x->_M_left); }
    1ab0:	49 8b 6c 24 10       	mov    0x10(%r12),%rbp
    1ab5:	be 30 00 00 00       	mov    $0x30,%esi
    1aba:	4c 89 e7             	mov    %r12,%rdi
    1abd:	e8 3e f7 ff ff       	call   1200 <_ZdlPvm@plt>
      while (__x != 0)
    1ac2:	48 85 ed             	test   %rbp,%rbp
    1ac5:	74 c5                	je     1a8c <_ZNSt8_Rb_treeISt4pairIiiES0_IKS1_iESt10_Select1stIS3_ESt4lessIS1_ESaIS3_EE8_M_eraseEPSt13_Rb_tree_nodeIS3_E.isra.0+0xcc>
    1ac7:	49 89 ec             	mov    %rbp,%r12
    1aca:	e9 59 ff ff ff       	jmp    1a28 <_ZNSt8_Rb_treeISt4pairIiiES0_IKS1_iESt10_Select1stIS3_ESt4lessIS1_ESaIS3_EE8_M_eraseEPSt13_Rb_tree_nodeIS3_E.isra.0+0x68>
      { return static_cast<_Link_type>(__x->_M_left); }
    1acf:	49 8b 5f 10          	mov    0x10(%r15),%rbx
    1ad3:	be 30 00 00 00       	mov    $0x30,%esi
    1ad8:	4c 89 ff             	mov    %r15,%rdi
    1adb:	e8 20 f7 ff ff       	call   1200 <_ZdlPvm@plt>
      while (__x != 0)
    1ae0:	48 85 db             	test   %rbx,%rbx
    1ae3:	74 33                	je     1b18 <_ZNSt8_Rb_treeISt4pairIiiES0_IKS1_iESt10_Select1stIS3_ESt4lessIS1_ESaIS3_EE8_M_eraseEPSt13_Rb_tree_nodeIS3_E.isra.0+0x158>
    1ae5:	49 89 df             	mov    %rbx,%r15
    1ae8:	e9 25 ff ff ff       	jmp    1a12 <_ZNSt8_Rb_treeISt4pairIiiES0_IKS1_iESt10_Select1stIS3_ESt4lessIS1_ESaIS3_EE8_M_eraseEPSt13_Rb_tree_nodeIS3_E.isra.0+0x52>
    1aed:	0f 1f 00             	nopl   (%rax)
      { return static_cast<_Link_type>(__x->_M_left); }
    1af0:	48 8b 55 10          	mov    0x10(%rbp),%rdx
    1af4:	be 30 00 00 00       	mov    $0x30,%esi
    1af9:	48 89 ef             	mov    %rbp,%rdi
    1afc:	48 89 54 24 18       	mov    %rdx,0x18(%rsp)
    1b01:	e8 fa f6 ff ff       	call   1200 <_ZdlPvm@plt>
      while (__x != 0)
    1b06:	48 8b 54 24 18       	mov    0x18(%rsp),%rdx
    1b0b:	48 85 d2             	test   %rdx,%rdx
    1b0e:	74 a0                	je     1ab0 <_ZNSt8_Rb_treeISt4pairIiiES0_IKS1_iESt10_Select1stIS3_ESt4lessIS1_ESaIS3_EE8_M_eraseEPSt13_Rb_tree_nodeIS3_E.isra.0+0xf0>
    1b10:	48 89 d5             	mov    %rdx,%rbp
    1b13:	e9 1a ff ff ff       	jmp    1a32 <_ZNSt8_Rb_treeISt4pairIiiES0_IKS1_iESt10_Select1stIS3_ESt4lessIS1_ESaIS3_EE8_M_eraseEPSt13_Rb_tree_nodeIS3_E.isra.0+0x72>
      { return static_cast<_Link_type>(__x->_M_left); }
    1b18:	49 8b 5e 10          	mov    0x10(%r14),%rbx
    1b1c:	be 30 00 00 00       	mov    $0x30,%esi
    1b21:	4c 89 f7             	mov    %r14,%rdi
    1b24:	e8 d7 f6 ff ff       	call   1200 <_ZdlPvm@plt>
      while (__x != 0)
    1b29:	48 85 db             	test   %rbx,%rbx
    1b2c:	74 08                	je     1b36 <_ZNSt8_Rb_treeISt4pairIiiES0_IKS1_iESt10_Select1stIS3_ESt4lessIS1_ESaIS3_EE8_M_eraseEPSt13_Rb_tree_nodeIS3_E.isra.0+0x176>
    1b2e:	49 89 de             	mov    %rbx,%r14
    1b31:	e9 cf fe ff ff       	jmp    1a05 <_ZNSt8_Rb_treeISt4pairIiiES0_IKS1_iESt10_Select1stIS3_ESt4lessIS1_ESaIS3_EE8_M_eraseEPSt13_Rb_tree_nodeIS3_E.isra.0+0x45>
      { return static_cast<_Link_type>(__x->_M_left); }
    1b36:	48 8b 7c 24 08       	mov    0x8(%rsp),%rdi
    1b3b:	be 30 00 00 00       	mov    $0x30,%esi
    1b40:	48 8b 5f 10          	mov    0x10(%rdi),%rbx
    1b44:	e8 b7 f6 ff ff       	call   1200 <_ZdlPvm@plt>
      while (__x != 0)
    1b49:	48 85 db             	test   %rbx,%rbx
    1b4c:	74 0a                	je     1b58 <_ZNSt8_Rb_treeISt4pairIiiES0_IKS1_iESt10_Select1stIS3_ESt4lessIS1_ESaIS3_EE8_M_eraseEPSt13_Rb_tree_nodeIS3_E.isra.0+0x198>
    1b4e:	48 89 5c 24 08       	mov    %rbx,0x8(%rsp)
    1b53:	e9 9b fe ff ff       	jmp    19f3 <_ZNSt8_Rb_treeISt4pairIiiES0_IKS1_iESt10_Select1stIS3_ESt4lessIS1_ESaIS3_EE8_M_eraseEPSt13_Rb_tree_nodeIS3_E.isra.0+0x33>
      { return static_cast<_Link_type>(__x->_M_left); }
    1b58:	48 8b 7c 24 10       	mov    0x10(%rsp),%rdi
    1b5d:	be 30 00 00 00       	mov    $0x30,%esi
    1b62:	48 8b 5f 10          	mov    0x10(%rdi),%rbx
    1b66:	e8 95 f6 ff ff       	call   1200 <_ZdlPvm@plt>
      while (__x != 0)
    1b6b:	48 85 db             	test   %rbx,%rbx
    1b6e:	74 0a                	je     1b7a <_ZNSt8_Rb_treeISt4pairIiiES0_IKS1_iESt10_Select1stIS3_ESt4lessIS1_ESaIS3_EE8_M_eraseEPSt13_Rb_tree_nodeIS3_E.isra.0+0x1ba>
    1b70:	48 89 5c 24 10       	mov    %rbx,0x10(%rsp)
    1b75:	e9 62 fe ff ff       	jmp    19dc <_ZNSt8_Rb_treeISt4pairIiiES0_IKS1_iESt10_Select1stIS3_ESt4lessIS1_ESaIS3_EE8_M_eraseEPSt13_Rb_tree_nodeIS3_E.isra.0+0x1c>
	  _Link_type __y = _S_left(__x);
	  _M_drop_node(__x);
	  __x = __y;
	}
    }
    1b7a:	48 83 c4 28          	add    $0x28,%rsp
    1b7e:	5b                   	pop    %rbx
    1b7f:	5d                   	pop    %rbp
    1b80:	41 5c                	pop    %r12
    1b82:	41 5d                	pop    %r13
    1b84:	41 5e                	pop    %r14
    1b86:	41 5f                	pop    %r15
    1b88:	c3                   	ret
    1b89:	90                   	nop
    1b8a:	66 0f 1f 44 00 00    	nopw   0x0(%rax,%rax,1)

0000000000001b90 <_ZNSt8_Rb_treeISt4pairIiiES0_IKS1_iESt10_Select1stIS3_ESt4lessIS1_ESaIS3_EE22_M_emplace_hint_uniqueIJRKSt21piecewise_construct_tSt5tupleIJOS1_EESE_IJEEEEESt17_Rb_tree_iteratorIS3_ESt23_Rb_tree_const_iteratorIS3_EDpOT_.isra.0>:

  template<typename _Key, typename _Val, typename _KeyOfValue,
	   typename _Compare, typename _Alloc>
    template<typename... _Args>
      auto
      _Rb_tree<_Key, _Val, _KeyOfValue, _Compare, _Alloc>::
    1b90:	41 55                	push   %r13
    1b92:	49 89 d5             	mov    %rdx,%r13
    1b95:	41 54                	push   %r12
    1b97:	49 89 f4             	mov    %rsi,%r12
    1b9a:	55                   	push   %rbp
    1b9b:	48 89 fd             	mov    %rdi,%rbp
	return static_cast<_Tp*>(_GLIBCXX_OPERATOR_NEW(__n * sizeof(_Tp)));
    1b9e:	bf 30 00 00 00       	mov    $0x30,%edi
    1ba3:	53                   	push   %rbx
    1ba4:	48 83 ec 08          	sub    $0x8,%rsp
    1ba8:	e8 43 f6 ff ff       	call   11f0 <_Znwm@plt>
      _M_emplace_hint_unique(const_iterator __pos, _Args&&... __args)
      -> iterator
      {
	_Auto_node __z(*this, std::forward<_Args>(__args)...);
	auto __res = _M_get_insert_hint_unique_pos(__pos, __z._M_key());
    1bad:	4c 89 e6             	mov    %r12,%rsi
    1bb0:	48 89 ef             	mov    %rbp,%rdi
    1bb3:	48 89 c3             	mov    %rax,%rbx
	     typename... _Args2, size_t... _Indexes2>
      _GLIBCXX20_CONSTEXPR inline
      pair<_T1, _T2>::
      pair(tuple<_Args1...>& __tuple1, tuple<_Args2...>& __tuple2,
	   _Index_tuple<_Indexes1...>, _Index_tuple<_Indexes2...>)
      : first(std::forward<_Args1>(std::get<_Indexes1>(__tuple1))...),
    1bb6:	49 8b 45 00          	mov    0x0(%r13),%rax
	second(std::forward<_Args2>(std::get<_Indexes2>(__tuple2))...)
    1bba:	c7 43 28 00 00 00 00 	movl   $0x0,0x28(%rbx)
      operator()(_Pair& __x) const
      { return __x.first; }

      const typename _Pair::first_type&
      operator()(const _Pair& __x) const
      { return __x.first; }
    1bc1:	48 8d 53 20          	lea    0x20(%rbx),%rdx
      : first(std::forward<_Args1>(std::get<_Indexes1>(__tuple1))...),
    1bc5:	48 8b 00             	mov    (%rax),%rax
    1bc8:	48 89 43 20          	mov    %rax,0x20(%rbx)
    1bcc:	e8 5f 20 00 00       	call   3c30 <_ZNSt8_Rb_treeISt4pairIiiES0_IKS1_iESt10_Select1stIS3_ESt4lessIS1_ESaIS3_EE29_M_get_insert_hint_unique_posESt23_Rb_tree_const_iteratorIS3_ERS2_>
	if (__res.second)
    1bd1:	48 85 d2             	test   %rdx,%rdx
    1bd4:	74 32                	je     1c08 <_ZNSt8_Rb_treeISt4pairIiiES0_IKS1_iESt10_Select1stIS3_ESt4lessIS1_ESaIS3_EE22_M_emplace_hint_uniqueIJRKSt21piecewise_construct_tSt5tupleIJOS1_EESE_IJEEEEESt17_Rb_tree_iteratorIS3_ESt23_Rb_tree_const_iteratorIS3_EDpOT_.isra.0+0x78>
    _Rb_tree<_Key, _Val, _KeyOfValue, _Compare, _Alloc>::
    1bd6:	bf 01 00 00 00       	mov    $0x1,%edi
    1bdb:	48 8d 4d 08          	lea    0x8(%rbp),%rcx
			    || _M_impl._M_key_compare(_S_key(__z),
    1bdf:	48 85 c0             	test   %rax,%rax
    1be2:	74 4c                	je     1c30 <_ZNSt8_Rb_treeISt4pairIiiES0_IKS1_iESt10_Select1stIS3_ESt4lessIS1_ESaIS3_EE22_M_emplace_hint_uniqueIJRKSt21piecewise_construct_tSt5tupleIJOS1_EESE_IJEEEEESt17_Rb_tree_iteratorIS3_ESt23_Rb_tree_const_iteratorIS3_EDpOT_.isra.0+0xa0>
      _Rb_tree_insert_and_rebalance(__insert_left, __z, __p,
    1be4:	48 89 de             	mov    %rbx,%rsi
    1be7:	e8 84 f5 ff ff       	call   1170 <_ZSt29_Rb_tree_insert_and_rebalancebPSt18_Rb_tree_node_baseS0_RS_@plt>
      ++_M_impl._M_node_count;
    1bec:	48 83 45 28 01       	addq   $0x1,0x28(%rbp)
	  return __z._M_insert(__res);
	return iterator(__res.first);
      }
    1bf1:	48 83 c4 08          	add    $0x8,%rsp
    1bf5:	48 89 dd             	mov    %rbx,%rbp
    1bf8:	48 89 e8             	mov    %rbp,%rax
    1bfb:	5b                   	pop    %rbx
    1bfc:	5d                   	pop    %rbp
    1bfd:	41 5c                	pop    %r12
    1bff:	41 5d                	pop    %r13
    1c01:	c3                   	ret
    1c02:	66 0f 1f 44 00 00    	nopw   0x0(%rax,%rax,1)
	_GLIBCXX_OPERATOR_DELETE(_GLIBCXX_SIZED_DEALLOC(__p, __n));
    1c08:	48 89 df             	mov    %rbx,%rdi
    1c0b:	be 30 00 00 00       	mov    $0x30,%esi
	return iterator(__res.first);
    1c10:	48 89 c5             	mov    %rax,%rbp
    1c13:	e8 e8 f5 ff ff       	call   1200 <_ZdlPvm@plt>
      }
    1c18:	48 83 c4 08          	add    $0x8,%rsp
    1c1c:	48 89 e8             	mov    %rbp,%rax
    1c1f:	5b                   	pop    %rbx
    1c20:	5d                   	pop    %rbp
    1c21:	41 5c                	pop    %r12
    1c23:	41 5d                	pop    %r13
    1c25:	c3                   	ret
    1c26:	66 2e 0f 1f 84 00 00 	cs nopw 0x0(%rax,%rax,1)
    1c2d:	00 00 00 
      bool __insert_left = (__x != 0 || __p == _M_end()
    1c30:	48 39 ca             	cmp    %rcx,%rdx
    1c33:	74 af                	je     1be4 <_ZNSt8_Rb_treeISt4pairIiiES0_IKS1_iESt10_Select1stIS3_ESt4lessIS1_ESaIS3_EE22_M_emplace_hint_uniqueIJRKSt21piecewise_construct_tSt5tupleIJOS1_EESE_IJEEEEESt17_Rb_tree_iteratorIS3_ESt23_Rb_tree_const_iteratorIS3_EDpOT_.isra.0+0x54>
	  { __t < __u } -> __boolean_testable;
	  { __u < __t } -> __boolean_testable;
	}
	{
	  if constexpr (three_way_comparable_with<_Tp, _Up>)
	    return __t <=> __u;
    1c35:	8b 42 20             	mov    0x20(%rdx),%eax
    1c38:	39 43 20             	cmp    %eax,0x20(%rbx)
    1c3b:	74 13                	je     1c50 <_ZNSt8_Rb_treeISt4pairIiiES0_IKS1_iESt10_Select1stIS3_ESt4lessIS1_ESaIS3_EE22_M_emplace_hint_uniqueIJRKSt21piecewise_construct_tSt5tupleIJOS1_EESE_IJEEEEESt17_Rb_tree_iteratorIS3_ESt23_Rb_tree_const_iteratorIS3_EDpOT_.isra.0+0xc0>
    1c3d:	40 0f 9c c7          	setl   %dil
    1c41:	40 0f b6 ff          	movzbl %dil,%edi
    1c45:	eb 9d                	jmp    1be4 <_ZNSt8_Rb_treeISt4pairIiiES0_IKS1_iESt10_Select1stIS3_ESt4lessIS1_ESaIS3_EE22_M_emplace_hint_uniqueIJRKSt21piecewise_construct_tSt5tupleIJOS1_EESE_IJEEEEESt17_Rb_tree_iteratorIS3_ESt23_Rb_tree_const_iteratorIS3_EDpOT_.isra.0+0x54>
    1c47:	66 0f 1f 84 00 00 00 	nopw   0x0(%rax,%rax,1)
    1c4e:	00 00 
    1c50:	8b 42 24             	mov    0x24(%rdx),%eax
    1c53:	31 ff                	xor    %edi,%edi
    1c55:	39 43 24             	cmp    %eax,0x24(%rbx)
    1c58:	75 e3                	jne    1c3d <_ZNSt8_Rb_treeISt4pairIiiES0_IKS1_iESt10_Select1stIS3_ESt4lessIS1_ESaIS3_EE22_M_emplace_hint_uniqueIJRKSt21piecewise_construct_tSt5tupleIJOS1_EESE_IJEEEEESt17_Rb_tree_iteratorIS3_ESt23_Rb_tree_const_iteratorIS3_EDpOT_.isra.0+0xad>
    1c5a:	eb 88                	jmp    1be4 <_ZNSt8_Rb_treeISt4pairIiiES0_IKS1_iESt10_Select1stIS3_ESt4lessIS1_ESaIS3_EE22_M_emplace_hint_uniqueIJRKSt21piecewise_construct_tSt5tupleIJOS1_EESE_IJEEEEESt17_Rb_tree_iteratorIS3_ESt23_Rb_tree_const_iteratorIS3_EDpOT_.isra.0+0x54>
    1c5c:	0f 1f 40 00          	nopl   0x0(%rax)

0000000000001c60 <_ZNKSt5ctypeIcE8do_widenEc>:
    1c60:	f3 0f 1e fa          	endbr64
    1c64:	89 f0                	mov    %esi,%eax
    1c66:	c3                   	ret
    1c67:	66 0f 1f 84 00 00 00 	nopw   0x0(%rax,%rax,1)
    1c6e:	00 00 

0000000000001c70 <_ZNSt6vectorIiSaIiEEaSERKS1_.isra.0>:
      if (std::__addressof(__x) != this)
    1c70:	48 39 fe             	cmp    %rdi,%rsi
    1c73:	74 6b                	je     1ce0 <_ZNSt6vectorIiSaIiEEaSERKS1_.isra.0+0x70>
    vector<_Tp, _Alloc>::
    1c75:	41 55                	push   %r13
    1c77:	41 54                	push   %r12
    1c79:	55                   	push   %rbp
    1c7a:	48 89 f5             	mov    %rsi,%rbp
    1c7d:	53                   	push   %rbx
    1c7e:	48 89 fb             	mov    %rdi,%rbx
    1c81:	48 83 ec 08          	sub    $0x8,%rsp
      { return size_type(this->_M_impl._M_finish - this->_M_impl._M_start); }
    1c85:	48 8b 4e 08          	mov    0x8(%rsi),%rcx
    1c89:	4c 8b 2e             	mov    (%rsi),%r13
			 - this->_M_impl._M_start); }
    1c8c:	48 8b 3f             	mov    (%rdi),%rdi
    1c8f:	48 8b 43 10          	mov    0x10(%rbx),%rax
      { return size_type(this->_M_impl._M_finish - this->_M_impl._M_start); }
    1c93:	49 89 cc             	mov    %rcx,%r12
    1c96:	4d 29 ec             	sub    %r13,%r12
			 - this->_M_impl._M_start); }
    1c99:	48 29 f8             	sub    %rdi,%rax
	  if (__xlen > capacity())
    1c9c:	4c 39 e0             	cmp    %r12,%rax
    1c9f:	0f 82 a3 00 00 00    	jb     1d48 <_ZNSt6vectorIiSaIiEEaSERKS1_.isra.0+0xd8>
      { return size_type(this->_M_impl._M_finish - this->_M_impl._M_start); }
    1ca5:	4c 8b 43 08          	mov    0x8(%rbx),%r8
    1ca9:	4c 89 c2             	mov    %r8,%rdx
    1cac:	48 29 fa             	sub    %rdi,%rdx
	  else if (size() >= __xlen)
    1caf:	4c 39 e2             	cmp    %r12,%rdx
    1cb2:	72 34                	jb     1ce8 <_ZNSt6vectorIiSaIiEEaSERKS1_.isra.0+0x78>
	_GLIBCXX20_CONSTEXPR
	static _Up*
	__copy_m(_Tp* __first, _Tp* __last, _Up* __result)
	{
	  const ptrdiff_t _Num = __last - __first;
	  if (__builtin_expect(_Num > 1, true))
    1cb4:	49 83 fc 04          	cmp    $0x4,%r12
    1cb8:	0f 8e f2 00 00 00    	jle    1db0 <_ZNSt6vectorIiSaIiEEaSERKS1_.isra.0+0x140>
	    __builtin_memmove(__result, __first, sizeof(_Tp) * _Num);
    1cbe:	4c 89 e2             	mov    %r12,%rdx
    1cc1:	4c 89 ee             	mov    %r13,%rsi
    1cc4:	e8 87 f5 ff ff       	call   1250 <memmove@plt>
	  this->_M_impl._M_finish = this->_M_impl._M_start + __xlen;
    1cc9:	48 8b 03             	mov    (%rbx),%rax
    1ccc:	4c 01 e0             	add    %r12,%rax
    1ccf:	48 89 43 08          	mov    %rax,0x8(%rbx)
    }
    1cd3:	48 83 c4 08          	add    $0x8,%rsp
    1cd7:	5b                   	pop    %rbx
    1cd8:	5d                   	pop    %rbp
    1cd9:	41 5c                	pop    %r12
    1cdb:	41 5d                	pop    %r13
    1cdd:	c3                   	ret
    1cde:	66 90                	xchg   %ax,%ax
    1ce0:	c3                   	ret
    1ce1:	0f 1f 80 00 00 00 00 	nopl   0x0(%rax)
	  if (__builtin_expect(_Num > 1, true))
    1ce8:	48 83 fa 04          	cmp    $0x4,%rdx
    1cec:	0f 8e d6 00 00 00    	jle    1dc8 <_ZNSt6vectorIiSaIiEEaSERKS1_.isra.0+0x158>
	    __builtin_memmove(__result, __first, sizeof(_Tp) * _Num);
    1cf2:	4c 89 ee             	mov    %r13,%rsi
    1cf5:	e8 56 f5 ff ff       	call   1250 <memmove@plt>
	      std::__uninitialized_copy_a(__x._M_impl._M_start + size(),
    1cfa:	4c 8b 43 08          	mov    0x8(%rbx),%r8
    1cfe:	48 8b 3b             	mov    (%rbx),%rdi
					  __x._M_impl._M_finish,
    1d01:	48 8b 4d 08          	mov    0x8(%rbp),%rcx
	      std::__uninitialized_copy_a(__x._M_impl._M_start + size(),
    1d05:	4c 8b 6d 00          	mov    0x0(%rbp),%r13
    1d09:	4c 89 c2             	mov    %r8,%rdx
    1d0c:	48 29 fa             	sub    %rdi,%rdx
    1d0f:	49 8d 74 15 00       	lea    0x0(%r13,%rdx,1),%rsi
	  const ptrdiff_t _Num = __last - __first;
    1d14:	48 29 f1             	sub    %rsi,%rcx
    1d17:	48 89 ca             	mov    %rcx,%rdx
	  if (__builtin_expect(_Num > 1, true))
    1d1a:	48 83 f9 04          	cmp    $0x4,%rcx
    1d1e:	0f 8e bc 00 00 00    	jle    1de0 <_ZNSt6vectorIiSaIiEEaSERKS1_.isra.0+0x170>
	    __builtin_memmove(__result, __first, sizeof(_Tp) * _Num);
    1d24:	4c 89 c7             	mov    %r8,%rdi
    1d27:	e8 24 f5 ff ff       	call   1250 <memmove@plt>
	  this->_M_impl._M_finish = this->_M_impl._M_start + __xlen;
    1d2c:	48 8b 03             	mov    (%rbx),%rax
    1d2f:	4c 01 e0             	add    %r12,%rax
    1d32:	48 89 43 08          	mov    %rax,0x8(%rbx)
    }
    1d36:	48 83 c4 08          	add    $0x8,%rsp
    1d3a:	5b                   	pop    %rbx
    1d3b:	5d                   	pop    %rbp
    1d3c:	41 5c                	pop    %r12
    1d3e:	41 5d                	pop    %r13
    1d40:	c3                   	ret
    1d41:	0f 1f 80 00 00 00 00 	nopl   0x0(%rax)
	if (__builtin_expect(__n > this->_M_max_size(), false))
    1d48:	48 b8 fc ff ff ff ff 	movabs $0x7ffffffffffffffc,%rax
    1d4f:	ff ff 7f 
    1d52:	4c 39 e0             	cmp    %r12,%rax
    1d55:	0f 82 ad 00 00 00    	jb     1e08 <_ZNSt6vectorIiSaIiEEaSERKS1_.isra.0+0x198>
	return static_cast<_Tp*>(_GLIBCXX_OPERATOR_NEW(__n * sizeof(_Tp)));
    1d5b:	4c 89 e7             	mov    %r12,%rdi
    1d5e:	e8 8d f4 ff ff       	call   11f0 <_Znwm@plt>
    1d63:	48 89 c5             	mov    %rax,%rbp
	  if (__builtin_expect(_Num > 1, true))
    1d66:	49 83 fc 04          	cmp    $0x4,%r12
    1d6a:	0f 8e 88 00 00 00    	jle    1df8 <_ZNSt6vectorIiSaIiEEaSERKS1_.isra.0+0x188>
	    __builtin_memmove(__result, __first, sizeof(_Tp) * _Num);
    1d70:	4c 89 e2             	mov    %r12,%rdx
    1d73:	4c 89 ee             	mov    %r13,%rsi
    1d76:	48 89 c7             	mov    %rax,%rdi
    1d79:	e8 d2 f4 ff ff       	call   1250 <memmove@plt>
			    - this->_M_impl._M_start);
    1d7e:	48 8b 3b             	mov    (%rbx),%rdi
	if (__p)
    1d81:	48 85 ff             	test   %rdi,%rdi
    1d84:	74 0c                	je     1d92 <_ZNSt6vectorIiSaIiEEaSERKS1_.isra.0+0x122>
    1d86:	48 8b 73 10          	mov    0x10(%rbx),%rsi
    1d8a:	48 29 fe             	sub    %rdi,%rsi
	_GLIBCXX_OPERATOR_DELETE(_GLIBCXX_SIZED_DEALLOC(__p, __n));
    1d8d:	e8 6e f4 ff ff       	call   1200 <_ZdlPvm@plt>
	      this->_M_impl._M_end_of_storage = this->_M_impl._M_start + __xlen;
    1d92:	4a 8d 44 25 00       	lea    0x0(%rbp,%r12,1),%rax
	      this->_M_impl._M_start = __tmp;
    1d97:	48 89 2b             	mov    %rbp,(%rbx)
	      this->_M_impl._M_end_of_storage = this->_M_impl._M_start + __xlen;
    1d9a:	48 89 43 10          	mov    %rax,0x10(%rbx)
	  this->_M_impl._M_finish = this->_M_impl._M_start + __xlen;
    1d9e:	48 89 43 08          	mov    %rax,0x8(%rbx)
    }
    1da2:	48 83 c4 08          	add    $0x8,%rsp
    1da6:	5b                   	pop    %rbx
    1da7:	5d                   	pop    %rbp
    1da8:	41 5c                	pop    %r12
    1daa:	41 5d                	pop    %r13
    1dac:	c3                   	ret
    1dad:	0f 1f 00             	nopl   (%rax)
	  this->_M_impl._M_finish = this->_M_impl._M_start + __xlen;
    1db0:	4a 8d 04 27          	lea    (%rdi,%r12,1),%rax
	  else if (_Num == 1)
    1db4:	0f 85 15 ff ff ff    	jne    1ccf <_ZNSt6vectorIiSaIiEEaSERKS1_.isra.0+0x5f>
	{ *__to = *__from; }
    1dba:	41 8b 55 00          	mov    0x0(%r13),%edx
    1dbe:	89 17                	mov    %edx,(%rdi)
    1dc0:	e9 0a ff ff ff       	jmp    1ccf <_ZNSt6vectorIiSaIiEEaSERKS1_.isra.0+0x5f>
    1dc5:	0f 1f 00             	nopl   (%rax)
	  else if (_Num == 1)
    1dc8:	0f 85 41 ff ff ff    	jne    1d0f <_ZNSt6vectorIiSaIiEEaSERKS1_.isra.0+0x9f>
	{ *__to = *__from; }
    1dce:	41 8b 45 00          	mov    0x0(%r13),%eax
    1dd2:	89 07                	mov    %eax,(%rdi)
    1dd4:	e9 36 ff ff ff       	jmp    1d0f <_ZNSt6vectorIiSaIiEEaSERKS1_.isra.0+0x9f>
    1dd9:	0f 1f 80 00 00 00 00 	nopl   0x0(%rax)
    1de0:	4a 8d 04 27          	lea    (%rdi,%r12,1),%rax
	  else if (_Num == 1)
    1de4:	0f 85 e5 fe ff ff    	jne    1ccf <_ZNSt6vectorIiSaIiEEaSERKS1_.isra.0+0x5f>
	{ *__to = *__from; }
    1dea:	8b 16                	mov    (%rsi),%edx
    1dec:	41 89 10             	mov    %edx,(%r8)
    1def:	e9 db fe ff ff       	jmp    1ccf <_ZNSt6vectorIiSaIiEEaSERKS1_.isra.0+0x5f>
    1df4:	0f 1f 40 00          	nopl   0x0(%rax)
    1df8:	41 8b 45 00          	mov    0x0(%r13),%eax
    1dfc:	89 45 00             	mov    %eax,0x0(%rbp)
    1dff:	e9 7a ff ff ff       	jmp    1d7e <_ZNSt6vectorIiSaIiEEaSERKS1_.isra.0+0x10e>
    1e04:	0f 1f 40 00          	nopl   0x0(%rax)
	      std::__throw_bad_array_new_length();
    1e08:	e8 d3 f3 ff ff       	call   11e0 <_ZSt28__throw_bad_array_new_lengthv@plt>
    1e0d:	0f 1f 00             	nopl   (%rax)

0000000000001e10 <_ZSt16__insertion_sortIN9__gnu_cxx17__normal_iteratorIPSt6vectorIiSaIiEES2_IS4_SaIS4_EEEENS0_5__ops15_Iter_less_iterEEvT_SB_T0_.isra.0>:
    _GLIBCXX20_CONSTEXPR
    void
    __insertion_sort(_RandomAccessIterator __first,
		     _RandomAccessIterator __last, _Compare __comp)
    {
      if (__first == __last) return;
    1e10:	48 39 f7             	cmp    %rsi,%rdi
    1e13:	0f 84 4f 02 00 00    	je     2068 <_ZSt16__insertion_sortIN9__gnu_cxx17__normal_iteratorIPSt6vectorIiSaIiEES2_IS4_SaIS4_EEEENS0_5__ops15_Iter_less_iterEEvT_SB_T0_.isra.0+0x258>
    __insertion_sort(_RandomAccessIterator __first,
    1e19:	41 57                	push   %r15
      { _M_current += __n; return *this; }

      _GLIBCXX20_CONSTEXPR
      __normal_iterator
      operator+(difference_type __n) const _GLIBCXX_NOEXCEPT
      { return __normal_iterator(_M_current + __n); }
    1e1b:	4c 8d 47 18          	lea    0x18(%rdi),%r8
    1e1f:	41 56                	push   %r14
    1e21:	41 55                	push   %r13
    1e23:	41 54                	push   %r12
    1e25:	55                   	push   %rbp
    1e26:	48 89 f5             	mov    %rsi,%rbp
    1e29:	53                   	push   %rbx
    1e2a:	48 89 fb             	mov    %rdi,%rbx
    1e2d:	48 83 ec 28          	sub    $0x28,%rsp

      for (_RandomAccessIterator __i = __first + 1; __i != __last; ++__i)
    1e31:	4c 39 c6             	cmp    %r8,%rsi
    1e34:	0f 84 16 01 00 00    	je     1f50 <_ZSt16__insertion_sortIN9__gnu_cxx17__normal_iteratorIPSt6vectorIiSaIiEES2_IS4_SaIS4_EEEENS0_5__ops15_Iter_less_iterEEvT_SB_T0_.isra.0+0x140>
    1e3a:	4d 89 c5             	mov    %r8,%r13
    1e3d:	0f 1f 00             	nopl   (%rax)
      : _M_current(__i) { }
    1e40:	f3 41 0f 6f 6d 00    	movdqu 0x0(%r13),%xmm5
    1e46:	48 8b 73 08          	mov    0x8(%rbx),%rsi
    1e4a:	4d 89 ef             	mov    %r13,%r15
    1e4d:	48 8b 13             	mov    (%rbx),%rdx
      __normal_iterator(const _Iterator& __i) _GLIBCXX_NOEXCEPT
    1e50:	0f 12 f5             	movhlps %xmm5,%xmm6
    1e53:	66 49 0f 7e ec       	movq   %xmm5,%r12
      : _M_current(__i) { }
    1e58:	0f 29 2c 24          	movaps %xmm5,(%rsp)
    1e5c:	66 49 0f 7e f6       	movq   %xmm6,%r14
		    return __c;
		}
	      return __lencmp;
	    }

      while (__first1 != __last1)
    1e61:	4d 39 e6             	cmp    %r12,%r14
    1e64:	0f 84 f0 01 00 00    	je     205a <_ZSt16__insertion_sortIN9__gnu_cxx17__normal_iteratorIPSt6vectorIiSaIiEES2_IS4_SaIS4_EEEENS0_5__ops15_Iter_less_iterEEvT_SB_T0_.isra.0+0x24a>
	{
	  if (__first2 == __last2)
    1e6a:	48 39 d6             	cmp    %rdx,%rsi
    1e6d:	0f 84 0d 01 00 00    	je     1f80 <_ZSt16__insertion_sortIN9__gnu_cxx17__normal_iteratorIPSt6vectorIiSaIiEES2_IS4_SaIS4_EEEENS0_5__ops15_Iter_less_iterEEvT_SB_T0_.isra.0+0x170>
    1e73:	4c 89 e1             	mov    %r12,%rcx
    1e76:	66 2e 0f 1f 84 00 00 	cs nopw 0x0(%rax,%rax,1)
    1e7d:	00 00 00 
    1e80:	8b 02                	mov    (%rdx),%eax
    1e82:	39 01                	cmp    %eax,(%rcx)
    1e84:	0f 84 d6 00 00 00    	je     1f60 <_ZSt16__insertion_sortIN9__gnu_cxx17__normal_iteratorIPSt6vectorIiSaIiEES2_IS4_SaIS4_EEEENS0_5__ops15_Iter_less_iterEEvT_SB_T0_.isra.0+0x150>
    1e8a:	0f 8d f0 00 00 00    	jge    1f80 <_ZSt16__insertion_sortIN9__gnu_cxx17__normal_iteratorIPSt6vectorIiSaIiEES2_IS4_SaIS4_EEEENS0_5__ops15_Iter_less_iterEEvT_SB_T0_.isra.0+0x170>
	    __n = __last - __first;
    1e90:	4c 89 e9             	mov    %r13,%rcx
	  _M_end_of_storage(__x._M_end_of_storage)
    1e93:	49 8b 45 10          	mov    0x10(%r13),%rax
	{ __x._M_start = __x._M_finish = __x._M_end_of_storage = pointer(); }
    1e97:	66 0f ef f6          	pxor   %xmm6,%xmm6
      { return __normal_iterator(_M_current + __n); }
    1e9b:	4d 8d 75 18          	lea    0x18(%r13),%r14
    1e9f:	48 29 d9             	sub    %rbx,%rcx
    1ea2:	49 c7 45 10 00 00 00 	movq   $0x0,0x10(%r13)
    1ea9:	00 
    1eaa:	48 89 ca             	mov    %rcx,%rdx
	  _M_end_of_storage(__x._M_end_of_storage)
    1ead:	48 89 44 24 18       	mov    %rax,0x18(%rsp)
    1eb2:	48 b8 ab aa aa aa aa 	movabs $0xaaaaaaaaaaaaaaab,%rax
    1eb9:	aa aa aa 
    1ebc:	48 c1 fa 03          	sar    $0x3,%rdx
	{ __x._M_start = __x._M_finish = __x._M_end_of_storage = pointer(); }
    1ec0:	41 0f 11 75 00       	movups %xmm6,0x0(%r13)
    1ec5:	48 0f af d0          	imul   %rax,%rdx
	  for (; __n > 0; --__n)
    1ec9:	48 85 c9             	test   %rcx,%rcx
    1ecc:	7e 51                	jle    1f1f <_ZSt16__insertion_sortIN9__gnu_cxx17__normal_iteratorIPSt6vectorIiSaIiEES2_IS4_SaIS4_EEEENS0_5__ops15_Iter_less_iterEEvT_SB_T0_.isra.0+0x10f>
    1ece:	48 8d 0c 95 00 00 00 	lea    0x0(,%rdx,4),%rcx
    1ed5:	00 
    1ed6:	48 29 ca             	sub    %rcx,%rdx
    1ed9:	4d 8d 64 d5 00       	lea    0x0(%r13,%rdx,8),%r12
    1ede:	66 90                	xchg   %ax,%ax
	  _M_end_of_storage = __x._M_end_of_storage;
    1ee0:	49 8b 57 f8          	mov    -0x8(%r15),%rdx
	  _M_start = __x._M_start;
    1ee4:	49 8b 3f             	mov    (%r15),%rdi
    1ee7:	66 0f ef e4          	pxor   %xmm4,%xmm4
	    *--__result = std::move(*--__last);
    1eeb:	49 83 ef 18          	sub    $0x18,%r15
    1eef:	f3 41 0f 6f 1f       	movdqu (%r15),%xmm3
	  _M_end_of_storage = __x._M_end_of_storage;
    1ef4:	49 8b 77 28          	mov    0x28(%r15),%rsi
	  _M_start = __x._M_start;
    1ef8:	41 0f 11 27          	movups %xmm4,(%r15)
	  _M_end_of_storage = __x._M_end_of_storage;
    1efc:	49 89 57 28          	mov    %rdx,0x28(%r15)
	  _M_start = __x._M_start;
    1f00:	41 0f 11 5f 18       	movups %xmm3,0x18(%r15)
	  _M_end_of_storage = __x._M_end_of_storage;
    1f05:	49 c7 47 10 00 00 00 	movq   $0x0,0x10(%r15)
    1f0c:	00 
	if (__p)
    1f0d:	48 85 ff             	test   %rdi,%rdi
    1f10:	74 08                	je     1f1a <_ZSt16__insertion_sortIN9__gnu_cxx17__normal_iteratorIPSt6vectorIiSaIiEES2_IS4_SaIS4_EEEENS0_5__ops15_Iter_less_iterEEvT_SB_T0_.isra.0+0x10a>
		      _M_impl._M_end_of_storage - _M_impl._M_start);
    1f12:	48 29 fe             	sub    %rdi,%rsi
	_GLIBCXX_OPERATOR_DELETE(_GLIBCXX_SIZED_DEALLOC(__p, __n));
    1f15:	e8 e6 f2 ff ff       	call   1200 <_ZdlPvm@plt>
	  for (; __n > 0; --__n)
    1f1a:	4d 39 fc             	cmp    %r15,%r12
    1f1d:	75 c1                	jne    1ee0 <_ZSt16__insertion_sortIN9__gnu_cxx17__normal_iteratorIPSt6vectorIiSaIiEES2_IS4_SaIS4_EEEENS0_5__ops15_Iter_less_iterEEvT_SB_T0_.isra.0+0xd0>
	  _M_start = __x._M_start;
    1f1f:	48 8b 3b             	mov    (%rbx),%rdi
    1f22:	66 0f 6f 3c 24       	movdqa (%rsp),%xmm7
	  _M_end_of_storage = __x._M_end_of_storage;
    1f27:	48 8b 44 24 18       	mov    0x18(%rsp),%rax
    1f2c:	48 8b 73 10          	mov    0x10(%rbx),%rsi
	  _M_start = __x._M_start;
    1f30:	0f 11 3b             	movups %xmm7,(%rbx)
	  _M_end_of_storage = __x._M_end_of_storage;
    1f33:	48 89 43 10          	mov    %rax,0x10(%rbx)
	if (__p)
    1f37:	48 85 ff             	test   %rdi,%rdi
    1f3a:	74 08                	je     1f44 <_ZSt16__insertion_sortIN9__gnu_cxx17__normal_iteratorIPSt6vectorIiSaIiEES2_IS4_SaIS4_EEEENS0_5__ops15_Iter_less_iterEEvT_SB_T0_.isra.0+0x134>
		      _M_impl._M_end_of_storage - _M_impl._M_start);
    1f3c:	48 29 fe             	sub    %rdi,%rsi
    1f3f:	e8 bc f2 ff ff       	call   1200 <_ZdlPvm@plt>
    1f44:	4d 89 f5             	mov    %r14,%r13
    1f47:	4c 39 f5             	cmp    %r14,%rbp
    1f4a:	0f 85 f0 fe ff ff    	jne    1e40 <_ZSt16__insertion_sortIN9__gnu_cxx17__normal_iteratorIPSt6vectorIiSaIiEES2_IS4_SaIS4_EEEENS0_5__ops15_Iter_less_iterEEvT_SB_T0_.isra.0+0x30>
	    }
	  else
	    std::__unguarded_linear_insert(__i,
				__gnu_cxx::__ops::__val_comp_iter(__comp));
	}
    }
    1f50:	48 83 c4 28          	add    $0x28,%rsp
    1f54:	5b                   	pop    %rbx
    1f55:	5d                   	pop    %rbp
    1f56:	41 5c                	pop    %r12
    1f58:	41 5d                	pop    %r13
    1f5a:	41 5e                	pop    %r14
    1f5c:	41 5f                	pop    %r15
    1f5e:	c3                   	ret
    1f5f:	90                   	nop
	++_M_current;
    1f60:	48 83 c1 04          	add    $0x4,%rcx
    1f64:	48 83 c2 04          	add    $0x4,%rdx
      while (__first1 != __last1)
    1f68:	49 39 ce             	cmp    %rcx,%r14
    1f6b:	0f 84 e9 00 00 00    	je     205a <_ZSt16__insertion_sortIN9__gnu_cxx17__normal_iteratorIPSt6vectorIiSaIiEES2_IS4_SaIS4_EEEENS0_5__ops15_Iter_less_iterEEvT_SB_T0_.isra.0+0x24a>
	  if (__first2 == __last2)
    1f71:	48 39 d6             	cmp    %rdx,%rsi
    1f74:	0f 85 06 ff ff ff    	jne    1e80 <_ZSt16__insertion_sortIN9__gnu_cxx17__normal_iteratorIPSt6vectorIiSaIiEES2_IS4_SaIS4_EEEENS0_5__ops15_Iter_less_iterEEvT_SB_T0_.isra.0+0x70>
    1f7a:	66 0f 1f 44 00 00    	nopw   0x0(%rax,%rax,1)
	  _M_end_of_storage(__x._M_end_of_storage)
    1f80:	49 8b 45 10          	mov    0x10(%r13),%rax
	{ __x._M_start = __x._M_finish = __x._M_end_of_storage = pointer(); }
    1f84:	49 c7 45 10 00 00 00 	movq   $0x0,0x10(%r13)
    1f8b:	00 
    1f8c:	66 0f ef f6          	pxor   %xmm6,%xmm6
	return *this;
    1f90:	4d 89 ef             	mov    %r13,%r15
    1f93:	41 0f 11 75 00       	movups %xmm6,0x0(%r13)
	  _M_end_of_storage(__x._M_end_of_storage)
    1f98:	48 89 44 24 18       	mov    %rax,0x18(%rsp)
      operator--() _GLIBCXX_NOEXCEPT
    1f9d:	0f 1f 00             	nopl   (%rax)
      : _M_current(__i) { }
    1fa0:	f3 41 0f 6f 47 e8    	movdqu -0x18(%r15),%xmm0
    1fa6:	0f 12 c8             	movhlps %xmm0,%xmm1
    1fa9:	66 48 0f 7e c0       	movq   %xmm0,%rax
      while (__first1 != __last1)
    1fae:	66 48 0f 7e c9       	movq   %xmm1,%rcx
    1fb3:	4d 39 e6             	cmp    %r12,%r14
    1fb6:	74 60                	je     2018 <_ZSt16__insertion_sortIN9__gnu_cxx17__normal_iteratorIPSt6vectorIiSaIiEES2_IS4_SaIS4_EEEENS0_5__ops15_Iter_less_iterEEvT_SB_T0_.isra.0+0x208>
	  if (__first2 == __last2)
    1fb8:	48 39 c1             	cmp    %rax,%rcx
    1fbb:	74 0b                	je     1fc8 <_ZSt16__insertion_sortIN9__gnu_cxx17__normal_iteratorIPSt6vectorIiSaIiEES2_IS4_SaIS4_EEEENS0_5__ops15_Iter_less_iterEEvT_SB_T0_.isra.0+0x1b8>
    1fbd:	4c 89 e2             	mov    %r12,%rdx
    1fc0:	8b 38                	mov    (%rax),%edi
    1fc2:	39 3a                	cmp    %edi,(%rdx)
    1fc4:	74 3a                	je     2000 <_ZSt16__insertion_sortIN9__gnu_cxx17__normal_iteratorIPSt6vectorIiSaIiEES2_IS4_SaIS4_EEEENS0_5__ops15_Iter_less_iterEEvT_SB_T0_.isra.0+0x1f0>
    1fc6:	7c 58                	jl     2020 <_ZSt16__insertion_sortIN9__gnu_cxx17__normal_iteratorIPSt6vectorIiSaIiEES2_IS4_SaIS4_EEEENS0_5__ops15_Iter_less_iterEEvT_SB_T0_.isra.0+0x210>
	  _M_start = __x._M_start;
    1fc8:	49 8b 3f             	mov    (%r15),%rdi
    1fcb:	66 0f 6f 3c 24       	movdqa (%rsp),%xmm7
	  _M_end_of_storage = __x._M_end_of_storage;
    1fd0:	48 8b 44 24 18       	mov    0x18(%rsp),%rax
    1fd5:	49 8b 77 10          	mov    0x10(%r15),%rsi
	  _M_start = __x._M_start;
    1fd9:	41 0f 11 3f          	movups %xmm7,(%r15)
	  _M_end_of_storage = __x._M_end_of_storage;
    1fdd:	49 89 47 10          	mov    %rax,0x10(%r15)
	if (__p)
    1fe1:	48 85 ff             	test   %rdi,%rdi
    1fe4:	74 08                	je     1fee <_ZSt16__insertion_sortIN9__gnu_cxx17__normal_iteratorIPSt6vectorIiSaIiEES2_IS4_SaIS4_EEEENS0_5__ops15_Iter_less_iterEEvT_SB_T0_.isra.0+0x1de>
		      _M_impl._M_end_of_storage - _M_impl._M_start);
    1fe6:	48 29 fe             	sub    %rdi,%rsi
    1fe9:	e8 12 f2 ff ff       	call   1200 <_ZdlPvm@plt>
      { return __normal_iterator(_M_current + __n); }
    1fee:	4d 8d 75 18          	lea    0x18(%r13),%r14
    1ff2:	e9 4d ff ff ff       	jmp    1f44 <_ZSt16__insertion_sortIN9__gnu_cxx17__normal_iteratorIPSt6vectorIiSaIiEES2_IS4_SaIS4_EEEENS0_5__ops15_Iter_less_iterEEvT_SB_T0_.isra.0+0x134>
    1ff7:	66 0f 1f 84 00 00 00 	nopw   0x0(%rax,%rax,1)
    1ffe:	00 00 
	++_M_current;
    2000:	48 83 c2 04          	add    $0x4,%rdx
    2004:	48 83 c0 04          	add    $0x4,%rax
      while (__first1 != __last1)
    2008:	49 39 d6             	cmp    %rdx,%r14
    200b:	74 0b                	je     2018 <_ZSt16__insertion_sortIN9__gnu_cxx17__normal_iteratorIPSt6vectorIiSaIiEES2_IS4_SaIS4_EEEENS0_5__ops15_Iter_less_iterEEvT_SB_T0_.isra.0+0x208>
	  if (__first2 == __last2)
    200d:	48 39 c1             	cmp    %rax,%rcx
    2010:	75 ae                	jne    1fc0 <_ZSt16__insertion_sortIN9__gnu_cxx17__normal_iteratorIPSt6vectorIiSaIiEES2_IS4_SaIS4_EEEENS0_5__ops15_Iter_less_iterEEvT_SB_T0_.isra.0+0x1b0>
    2012:	eb b4                	jmp    1fc8 <_ZSt16__insertion_sortIN9__gnu_cxx17__normal_iteratorIPSt6vectorIiSaIiEES2_IS4_SaIS4_EEEENS0_5__ops15_Iter_less_iterEEvT_SB_T0_.isra.0+0x1b8>
    2014:	0f 1f 40 00          	nopl   0x0(%rax)
	  if (auto __cmp = __comp(*__first1, *__first2); __cmp != 0)
	    return __cmp;
	  ++__first1;
	  ++__first2;
	}
      return (__first2 == __last2) <=> true; // See PR 94006
    2018:	48 39 c1             	cmp    %rax,%rcx
    201b:	74 ab                	je     1fc8 <_ZSt16__insertion_sortIN9__gnu_cxx17__normal_iteratorIPSt6vectorIiSaIiEES2_IS4_SaIS4_EEEENS0_5__ops15_Iter_less_iterEEvT_SB_T0_.isra.0+0x1b8>
    201d:	0f 1f 00             	nopl   (%rax)
	  _M_end_of_storage = __x._M_end_of_storage;
    2020:	49 8b 47 f8          	mov    -0x8(%r15),%rax
	  _M_start = __x._M_start;
    2024:	49 8b 3f             	mov    (%r15),%rdi
    2027:	66 0f ef d2          	pxor   %xmm2,%xmm2
	  _M_end_of_storage = __x._M_end_of_storage;
    202b:	49 c7 47 f8 00 00 00 	movq   $0x0,-0x8(%r15)
    2032:	00 
    2033:	49 8b 77 10          	mov    0x10(%r15),%rsi
	  _M_start = __x._M_start;
    2037:	41 0f 11 07          	movups %xmm0,(%r15)
	  _M_end_of_storage = __x._M_end_of_storage;
    203b:	49 89 47 10          	mov    %rax,0x10(%r15)
	  _M_start = __x._M_start;
    203f:	41 0f 11 57 e8       	movups %xmm2,-0x18(%r15)
	if (__p)
    2044:	48 85 ff             	test   %rdi,%rdi
    2047:	74 08                	je     2051 <_ZSt16__insertion_sortIN9__gnu_cxx17__normal_iteratorIPSt6vectorIiSaIiEES2_IS4_SaIS4_EEEENS0_5__ops15_Iter_less_iterEEvT_SB_T0_.isra.0+0x241>
		      _M_impl._M_end_of_storage - _M_impl._M_start);
    2049:	48 29 fe             	sub    %rdi,%rsi
    204c:	e8 af f1 ff ff       	call   1200 <_ZdlPvm@plt>
      operator--() _GLIBCXX_NOEXCEPT
    2051:	49 83 ef 18          	sub    $0x18,%r15
	return *this;
    2055:	e9 46 ff ff ff       	jmp    1fa0 <_ZSt16__insertion_sortIN9__gnu_cxx17__normal_iteratorIPSt6vectorIiSaIiEES2_IS4_SaIS4_EEEENS0_5__ops15_Iter_less_iterEEvT_SB_T0_.isra.0+0x190>
    205a:	48 39 d6             	cmp    %rdx,%rsi
    205d:	0f 85 2d fe ff ff    	jne    1e90 <_ZSt16__insertion_sortIN9__gnu_cxx17__normal_iteratorIPSt6vectorIiSaIiEES2_IS4_SaIS4_EEEENS0_5__ops15_Iter_less_iterEEvT_SB_T0_.isra.0+0x80>
    2063:	e9 18 ff ff ff       	jmp    1f80 <_ZSt16__insertion_sortIN9__gnu_cxx17__normal_iteratorIPSt6vectorIiSaIiEES2_IS4_SaIS4_EEEENS0_5__ops15_Iter_less_iterEEvT_SB_T0_.isra.0+0x170>
    2068:	c3                   	ret
    2069:	0f 1f 80 00 00 00 00 	nopl   0x0(%rax)

0000000000002070 <_ZSt13__adjust_heapIN9__gnu_cxx17__normal_iteratorIPSt6vectorIiSaIiEES2_IS4_SaIS4_EEEElS4_NS0_5__ops15_Iter_less_iterEEvT_T0_SC_T1_T2_.isra.0>:
    __adjust_heap(_RandomAccessIterator __first, _Distance __holeIndex,
		  _Distance __len, _Tp __value, _Compare __comp)
    {
      const _Distance __topIndex = __holeIndex;
      _Distance __secondChild = __holeIndex;
      while (__secondChild < (__len - 1) / 2)
    2070:	48 8d 42 ff          	lea    -0x1(%rdx),%rax
    __adjust_heap(_RandomAccessIterator __first, _Distance __holeIndex,
    2074:	41 57                	push   %r15
    2076:	49 89 ff             	mov    %rdi,%r15
    2079:	41 56                	push   %r14
      while (__secondChild < (__len - 1) / 2)
    207b:	49 89 c1             	mov    %rax,%r9
    __adjust_heap(_RandomAccessIterator __first, _Distance __holeIndex,
    207e:	41 55                	push   %r13
      while (__secondChild < (__len - 1) / 2)
    2080:	49 c1 e9 3f          	shr    $0x3f,%r9
    __adjust_heap(_RandomAccessIterator __first, _Distance __holeIndex,
    2084:	41 54                	push   %r12
      while (__secondChild < (__len - 1) / 2)
    2086:	49 01 c1             	add    %rax,%r9
    __adjust_heap(_RandomAccessIterator __first, _Distance __holeIndex,
    2089:	49 89 cc             	mov    %rcx,%r12
    208c:	55                   	push   %rbp
      while (__secondChild < (__len - 1) / 2)
    208d:	49 d1 f9             	sar    $1,%r9
    __adjust_heap(_RandomAccessIterator __first, _Distance __holeIndex,
    2090:	48 89 f5             	mov    %rsi,%rbp
    2093:	53                   	push   %rbx
    2094:	48 83 ec 28          	sub    $0x28,%rsp
    2098:	48 89 14 24          	mov    %rdx,(%rsp)
      while (__secondChild < (__len - 1) / 2)
    209c:	4c 39 ce             	cmp    %r9,%rsi
    209f:	0f 8d f3 00 00 00    	jge    2198 <_ZSt13__adjust_heapIN9__gnu_cxx17__normal_iteratorIPSt6vectorIiSaIiEES2_IS4_SaIS4_EEEElS4_NS0_5__ops15_Iter_less_iterEEvT_T0_SC_T1_T2_.isra.0+0x128>
    20a5:	4d 89 cd             	mov    %r9,%r13
    20a8:	49 89 f2             	mov    %rsi,%r10
	  _M_start = __x._M_start;
    20ab:	66 0f ef d2          	pxor   %xmm2,%xmm2
    20af:	eb 50                	jmp    2101 <_ZSt13__adjust_heapIN9__gnu_cxx17__normal_iteratorIPSt6vectorIiSaIiEES2_IS4_SaIS4_EEEElS4_NS0_5__ops15_Iter_less_iterEEvT_T0_SC_T1_T2_.isra.0+0x91>
    20b1:	0f 1f 80 00 00 00 00 	nopl   0x0(%rax)
    20b8:	0f 8d b2 00 00 00    	jge    2170 <_ZSt13__adjust_heapIN9__gnu_cxx17__normal_iteratorIPSt6vectorIiSaIiEES2_IS4_SaIS4_EEEElS4_NS0_5__ops15_Iter_less_iterEEvT_T0_SC_T1_T2_.isra.0+0x100>
      { return __normal_iterator(_M_current + __n); }
    20be:	4b 8d 04 52          	lea    (%r10,%r10,2),%rax
    20c2:	49 8d 04 c7          	lea    (%r15,%rax,8),%rax
    20c6:	48 8b 38             	mov    (%rax),%rdi
    20c9:	0f 11 00             	movups %xmm0,(%rax)
	  _M_end_of_storage = __x._M_end_of_storage;
    20cc:	49 8b 56 10          	mov    0x10(%r14),%rdx
    20d0:	48 8b 70 10          	mov    0x10(%rax),%rsi
    20d4:	48 89 50 10          	mov    %rdx,0x10(%rax)
    20d8:	49 c7 46 10 00 00 00 	movq   $0x0,0x10(%r14)
    20df:	00 
	  _M_start = __x._M_start;
    20e0:	41 0f 11 16          	movups %xmm2,(%r14)
	if (__p)
    20e4:	48 85 ff             	test   %rdi,%rdi
    20e7:	74 0c                	je     20f5 <_ZSt13__adjust_heapIN9__gnu_cxx17__normal_iteratorIPSt6vectorIiSaIiEES2_IS4_SaIS4_EEEElS4_NS0_5__ops15_Iter_less_iterEEvT_T0_SC_T1_T2_.isra.0+0x85>
		      _M_impl._M_end_of_storage - _M_impl._M_start);
    20e9:	48 29 fe             	sub    %rdi,%rsi
    20ec:	e8 0f f1 ff ff       	call   1200 <_ZdlPvm@plt>
    20f1:	66 0f ef d2          	pxor   %xmm2,%xmm2
    20f5:	4c 39 eb             	cmp    %r13,%rbx
    20f8:	0f 8d aa 00 00 00    	jge    21a8 <_ZSt13__adjust_heapIN9__gnu_cxx17__normal_iteratorIPSt6vectorIiSaIiEES2_IS4_SaIS4_EEEElS4_NS0_5__ops15_Iter_less_iterEEvT_T0_SC_T1_T2_.isra.0+0x138>
    20fe:	49 89 da             	mov    %rbx,%r10
	{
	  __secondChild = 2 * (__secondChild + 1);
    2101:	49 8d 42 01          	lea    0x1(%r10),%rax
    2105:	48 8d 3c 00          	lea    (%rax,%rax,1),%rdi
    2109:	48 8d 04 87          	lea    (%rdi,%rax,4),%rax
	  if (__comp(__first + __secondChild,
    210d:	48 8d 5f ff          	lea    -0x1(%rdi),%rbx
    2111:	48 8d 14 5b          	lea    (%rbx,%rbx,2),%rdx
    2115:	4d 8d 04 c7          	lea    (%r15,%rax,8),%r8
      : _M_current(__i) { }
    2119:	f3 41 0f 6f 08       	movdqu (%r8),%xmm1
      { return __normal_iterator(_M_current + __n); }
    211e:	4d 8d 34 d7          	lea    (%r15,%rdx,8),%r14
      : _M_current(__i) { }
    2122:	f3 41 0f 6f 06       	movdqu (%r14),%xmm0
    2127:	0f 12 e9             	movhlps %xmm1,%xmm5
    212a:	66 48 0f 7e ca       	movq   %xmm1,%rdx
    212f:	0f 12 e0             	movhlps %xmm0,%xmm4
    2132:	66 48 0f 7e ee       	movq   %xmm5,%rsi
    2137:	66 48 0f 7e c0       	movq   %xmm0,%rax
      while (__first1 != __last1)
    213c:	66 48 0f 7e e1       	movq   %xmm4,%rcx
    2141:	48 39 f2             	cmp    %rsi,%rdx
    2144:	74 3a                	je     2180 <_ZSt13__adjust_heapIN9__gnu_cxx17__normal_iteratorIPSt6vectorIiSaIiEES2_IS4_SaIS4_EEEElS4_NS0_5__ops15_Iter_less_iterEEvT_T0_SC_T1_T2_.isra.0+0x110>
	  if (__first2 == __last2)
    2146:	48 39 c1             	cmp    %rax,%rcx
    2149:	74 25                	je     2170 <_ZSt13__adjust_heapIN9__gnu_cxx17__normal_iteratorIPSt6vectorIiSaIiEES2_IS4_SaIS4_EEEElS4_NS0_5__ops15_Iter_less_iterEEvT_T0_SC_T1_T2_.isra.0+0x100>
    214b:	0f 1f 44 00 00       	nopl   0x0(%rax,%rax,1)
    2150:	44 8b 08             	mov    (%rax),%r9d
    2153:	44 39 0a             	cmp    %r9d,(%rdx)
    2156:	0f 85 5c ff ff ff    	jne    20b8 <_ZSt13__adjust_heapIN9__gnu_cxx17__normal_iteratorIPSt6vectorIiSaIiEES2_IS4_SaIS4_EEEElS4_NS0_5__ops15_Iter_less_iterEEvT_T0_SC_T1_T2_.isra.0+0x48>
	++_M_current;
    215c:	48 83 c2 04          	add    $0x4,%rdx
    2160:	48 83 c0 04          	add    $0x4,%rax
      while (__first1 != __last1)
    2164:	48 39 f2             	cmp    %rsi,%rdx
    2167:	74 17                	je     2180 <_ZSt13__adjust_heapIN9__gnu_cxx17__normal_iteratorIPSt6vectorIiSaIiEES2_IS4_SaIS4_EEEElS4_NS0_5__ops15_Iter_less_iterEEvT_T0_SC_T1_T2_.isra.0+0x110>
	  if (__first2 == __last2)
    2169:	48 39 c8             	cmp    %rcx,%rax
    216c:	75 e2                	jne    2150 <_ZSt13__adjust_heapIN9__gnu_cxx17__normal_iteratorIPSt6vectorIiSaIiEES2_IS4_SaIS4_EEEElS4_NS0_5__ops15_Iter_less_iterEEvT_T0_SC_T1_T2_.isra.0+0xe0>
    216e:	66 90                	xchg   %ax,%ax
    2170:	66 0f 6f c1          	movdqa %xmm1,%xmm0
    2174:	4d 89 c6             	mov    %r8,%r14
	  __secondChild = 2 * (__secondChild + 1);
    2177:	48 89 fb             	mov    %rdi,%rbx
    217a:	e9 3f ff ff ff       	jmp    20be <_ZSt13__adjust_heapIN9__gnu_cxx17__normal_iteratorIPSt6vectorIiSaIiEES2_IS4_SaIS4_EEEElS4_NS0_5__ops15_Iter_less_iterEEvT_T0_SC_T1_T2_.isra.0+0x4e>
    217f:	90                   	nop
      return (__first2 == __last2) <=> true; // See PR 94006
    2180:	48 39 c1             	cmp    %rax,%rcx
    2183:	0f 85 35 ff ff ff    	jne    20be <_ZSt13__adjust_heapIN9__gnu_cxx17__normal_iteratorIPSt6vectorIiSaIiEES2_IS4_SaIS4_EEEElS4_NS0_5__ops15_Iter_less_iterEEvT_T0_SC_T1_T2_.isra.0+0x4e>
	  if (__first2 == __last2)
    2189:	66 0f 6f c1          	movdqa %xmm1,%xmm0
    218d:	4d 89 c6             	mov    %r8,%r14
    2190:	48 89 fb             	mov    %rdi,%rbx
    2193:	e9 26 ff ff ff       	jmp    20be <_ZSt13__adjust_heapIN9__gnu_cxx17__normal_iteratorIPSt6vectorIiSaIiEES2_IS4_SaIS4_EEEElS4_NS0_5__ops15_Iter_less_iterEEvT_T0_SC_T1_T2_.isra.0+0x4e>
      { return __normal_iterator(_M_current + __n); }
    2198:	48 8d 04 76          	lea    (%rsi,%rsi,2),%rax
    219c:	48 89 f3             	mov    %rsi,%rbx
    219f:	4c 8d 34 c7          	lea    (%rdi,%rax,8),%r14
    21a3:	0f 1f 44 00 00       	nopl   0x0(%rax,%rax,1)
		     __first + (__secondChild - 1)))
	    __secondChild--;
	  *(__first + __holeIndex) = _GLIBCXX_MOVE(*(__first + __secondChild));
	  __holeIndex = __secondChild;
	}
      if ((__len & 1) == 0 && __secondChild == (__len - 2) / 2)
    21a8:	48 8b 04 24          	mov    (%rsp),%rax
    21ac:	a8 01                	test   $0x1,%al
    21ae:	75 1d                	jne    21cd <_ZSt13__adjust_heapIN9__gnu_cxx17__normal_iteratorIPSt6vectorIiSaIiEES2_IS4_SaIS4_EEEElS4_NS0_5__ops15_Iter_less_iterEEvT_T0_SC_T1_T2_.isra.0+0x15d>
    21b0:	49 89 c5             	mov    %rax,%r13
    21b3:	49 83 ed 02          	sub    $0x2,%r13
    21b7:	4c 89 e8             	mov    %r13,%rax
    21ba:	48 c1 e8 3f          	shr    $0x3f,%rax
    21be:	4c 01 e8             	add    %r13,%rax
    21c1:	48 d1 f8             	sar    $1,%rax
    21c4:	48 39 d8             	cmp    %rbx,%rax
    21c7:	0f 84 8d 01 00 00    	je     235a <_ZSt13__adjust_heapIN9__gnu_cxx17__normal_iteratorIPSt6vectorIiSaIiEES2_IS4_SaIS4_EEEElS4_NS0_5__ops15_Iter_less_iterEEvT_T0_SC_T1_T2_.isra.0+0x2ea>
	  _M_end_of_storage(__x._M_end_of_storage)
    21cd:	49 8b 44 24 10       	mov    0x10(%r12),%rax
	{ __x._M_start = __x._M_finish = __x._M_end_of_storage = pointer(); }
    21d2:	66 0f ef c0          	pxor   %xmm0,%xmm0
	: _M_start(__x._M_start), _M_finish(__x._M_finish),
    21d6:	f3 41 0f 6f 34 24    	movdqu (%r12),%xmm6
	{ __x._M_start = __x._M_finish = __x._M_end_of_storage = pointer(); }
    21dc:	49 c7 44 24 10 00 00 	movq   $0x0,0x10(%r12)
    21e3:	00 00 
    21e5:	41 0f 11 04 24       	movups %xmm0,(%r12)
	  _M_start = __x._M_start;
    21ea:	49 8b 3e             	mov    (%r14),%rdi
	  _M_end_of_storage(__x._M_end_of_storage)
    21ed:	48 89 44 24 08       	mov    %rax,0x8(%rsp)
      _Distance __parent = (__holeIndex - 1) / 2;
    21f2:	48 8d 43 ff          	lea    -0x1(%rbx),%rax
    21f6:	0f 12 fe             	movhlps %xmm6,%xmm7
    21f9:	66 49 0f 7e f1       	movq   %xmm6,%r9
    21fe:	49 89 c4             	mov    %rax,%r12
	: _M_start(__x._M_start), _M_finish(__x._M_finish),
    2201:	0f 29 74 24 10       	movaps %xmm6,0x10(%rsp)
    2206:	66 49 0f 7e fd       	movq   %xmm7,%r13
    220b:	49 c1 ec 3f          	shr    $0x3f,%r12
    220f:	49 01 c4             	add    %rax,%r12
    2212:	49 d1 fc             	sar    $1,%r12
      while (__holeIndex > __topIndex && __comp(__first + __parent, __value))
    2215:	48 39 eb             	cmp    %rbp,%rbx
    2218:	0f 8e 88 01 00 00    	jle    23a6 <_ZSt13__adjust_heapIN9__gnu_cxx17__normal_iteratorIPSt6vectorIiSaIiEES2_IS4_SaIS4_EEEElS4_NS0_5__ops15_Iter_less_iterEEvT_T0_SC_T1_T2_.isra.0+0x336>
	  _M_end_of_storage = __x._M_end_of_storage;
    221e:	49 8b 76 10          	mov    0x10(%r14),%rsi
	  _M_start = __x._M_start;
    2222:	66 0f 6f c8          	movdqa %xmm0,%xmm1
    2226:	eb 74                	jmp    229c <_ZSt13__adjust_heapIN9__gnu_cxx17__normal_iteratorIPSt6vectorIiSaIiEES2_IS4_SaIS4_EEEElS4_NS0_5__ops15_Iter_less_iterEEvT_T0_SC_T1_T2_.isra.0+0x22c>
    2228:	0f 1f 84 00 00 00 00 	nopl   0x0(%rax,%rax,1)
    222f:	00 
    2230:	0f 8d ba 00 00 00    	jge    22f0 <_ZSt13__adjust_heapIN9__gnu_cxx17__normal_iteratorIPSt6vectorIiSaIiEES2_IS4_SaIS4_EEEElS4_NS0_5__ops15_Iter_less_iterEEvT_T0_SC_T1_T2_.isra.0+0x280>
    2236:	48 8d 04 5b          	lea    (%rbx,%rbx,2),%rax
    223a:	49 8d 04 c7          	lea    (%r15,%rax,8),%rax
    223e:	0f 11 00             	movups %xmm0,(%rax)
	  _M_end_of_storage = __x._M_end_of_storage;
    2241:	49 8b 56 10          	mov    0x10(%r14),%rdx
    2245:	48 89 50 10          	mov    %rdx,0x10(%rax)
    2249:	49 c7 46 10 00 00 00 	movq   $0x0,0x10(%r14)
    2250:	00 
	  _M_start = __x._M_start;
    2251:	41 0f 11 0e          	movups %xmm1,(%r14)
	if (__p)
    2255:	48 85 ff             	test   %rdi,%rdi
    2258:	0f 84 d2 00 00 00    	je     2330 <_ZSt13__adjust_heapIN9__gnu_cxx17__normal_iteratorIPSt6vectorIiSaIiEES2_IS4_SaIS4_EEEElS4_NS0_5__ops15_Iter_less_iterEEvT_T0_SC_T1_T2_.isra.0+0x2c0>
		      _M_impl._M_end_of_storage - _M_impl._M_start);
    225e:	48 29 fe             	sub    %rdi,%rsi
    2261:	4c 89 0c 24          	mov    %r9,(%rsp)
    2265:	e8 96 ef ff ff       	call   1200 <_ZdlPvm@plt>
	  _M_end_of_storage = __x._M_end_of_storage;
    226a:	49 8b 76 10          	mov    0x10(%r14),%rsi
	  _M_start = __x._M_start;
    226e:	49 8b 3e             	mov    (%r14),%rdi
    2271:	66 0f ef c9          	pxor   %xmm1,%xmm1
    2275:	4c 8b 0c 24          	mov    (%rsp),%r9
		      _M_impl._M_end_of_storage - _M_impl._M_start);
    2279:	48 89 f2             	mov    %rsi,%rdx
    227c:	48 29 fa             	sub    %rdi,%rdx
	  __parent = (__holeIndex - 1) / 2;
    227f:	49 8d 4c 24 ff       	lea    -0x1(%r12),%rcx
    2284:	4c 89 e3             	mov    %r12,%rbx
    2287:	48 89 c8             	mov    %rcx,%rax
    228a:	48 c1 e8 3f          	shr    $0x3f,%rax
    228e:	48 01 c8             	add    %rcx,%rax
    2291:	48 d1 f8             	sar    $1,%rax
      while (__holeIndex > __topIndex && __comp(__first + __parent, __value))
    2294:	4c 39 e5             	cmp    %r12,%rbp
    2297:	7d 65                	jge    22fe <_ZSt13__adjust_heapIN9__gnu_cxx17__normal_iteratorIPSt6vectorIiSaIiEES2_IS4_SaIS4_EEEElS4_NS0_5__ops15_Iter_less_iterEEvT_T0_SC_T1_T2_.isra.0+0x28e>
    2299:	49 89 c4             	mov    %rax,%r12
    229c:	4b 8d 04 64          	lea    (%r12,%r12,2),%rax
      while (__first1 != __last1)
    22a0:	4c 89 ca             	mov    %r9,%rdx
    22a3:	4d 8d 34 c7          	lea    (%r15,%rax,8),%r14
      : _M_current(__i) { }
    22a7:	f3 41 0f 6f 06       	movdqu (%r14),%xmm0
    22ac:	0f 12 d8             	movhlps %xmm0,%xmm3
    22af:	66 48 0f 7e c0       	movq   %xmm0,%rax
    22b4:	66 48 0f 7e d9       	movq   %xmm3,%rcx
    22b9:	48 39 c8             	cmp    %rcx,%rax
    22bc:	0f 84 7e 00 00 00    	je     2340 <_ZSt13__adjust_heapIN9__gnu_cxx17__normal_iteratorIPSt6vectorIiSaIiEES2_IS4_SaIS4_EEEElS4_NS0_5__ops15_Iter_less_iterEEvT_T0_SC_T1_T2_.isra.0+0x2d0>
	  if (__first2 == __last2)
    22c2:	4d 39 cd             	cmp    %r9,%r13
    22c5:	74 29                	je     22f0 <_ZSt13__adjust_heapIN9__gnu_cxx17__normal_iteratorIPSt6vectorIiSaIiEES2_IS4_SaIS4_EEEElS4_NS0_5__ops15_Iter_less_iterEEvT_T0_SC_T1_T2_.isra.0+0x280>
    22c7:	4c 89 ca             	mov    %r9,%rdx
    22ca:	66 0f 1f 44 00 00    	nopw   0x0(%rax,%rax,1)
    22d0:	44 8b 1a             	mov    (%rdx),%r11d
    22d3:	44 39 18             	cmp    %r11d,(%rax)
    22d6:	0f 85 54 ff ff ff    	jne    2230 <_ZSt13__adjust_heapIN9__gnu_cxx17__normal_iteratorIPSt6vectorIiSaIiEES2_IS4_SaIS4_EEEElS4_NS0_5__ops15_Iter_less_iterEEvT_T0_SC_T1_T2_.isra.0+0x1c0>
	++_M_current;
    22dc:	48 83 c0 04          	add    $0x4,%rax
    22e0:	48 83 c2 04          	add    $0x4,%rdx
      while (__first1 != __last1)
    22e4:	48 39 c8             	cmp    %rcx,%rax
    22e7:	74 57                	je     2340 <_ZSt13__adjust_heapIN9__gnu_cxx17__normal_iteratorIPSt6vectorIiSaIiEES2_IS4_SaIS4_EEEElS4_NS0_5__ops15_Iter_less_iterEEvT_T0_SC_T1_T2_.isra.0+0x2d0>
	  if (__first2 == __last2)
    22e9:	49 39 d5             	cmp    %rdx,%r13
    22ec:	75 e2                	jne    22d0 <_ZSt13__adjust_heapIN9__gnu_cxx17__normal_iteratorIPSt6vectorIiSaIiEES2_IS4_SaIS4_EEEElS4_NS0_5__ops15_Iter_less_iterEEvT_T0_SC_T1_T2_.isra.0+0x260>
    22ee:	66 90                	xchg   %ax,%ax
      { return __normal_iterator(_M_current + __n); }
    22f0:	48 8d 04 5b          	lea    (%rbx,%rbx,2),%rax
    22f4:	48 29 fe             	sub    %rdi,%rsi
    22f7:	4d 8d 34 c7          	lea    (%r15,%rax,8),%r14
    22fb:	48 89 f2             	mov    %rsi,%rdx
	  _M_start = __x._M_start;
    22fe:	66 0f 6f 7c 24 10    	movdqa 0x10(%rsp),%xmm7
	  _M_end_of_storage = __x._M_end_of_storage;
    2304:	48 8b 44 24 08       	mov    0x8(%rsp),%rax
	  _M_start = __x._M_start;
    2309:	41 0f 11 3e          	movups %xmm7,(%r14)
	  _M_end_of_storage = __x._M_end_of_storage;
    230d:	49 89 46 10          	mov    %rax,0x10(%r14)
	if (__p)
    2311:	48 85 ff             	test   %rdi,%rdi
    2314:	74 35                	je     234b <_ZSt13__adjust_heapIN9__gnu_cxx17__normal_iteratorIPSt6vectorIiSaIiEES2_IS4_SaIS4_EEEElS4_NS0_5__ops15_Iter_less_iterEEvT_T0_SC_T1_T2_.isra.0+0x2db>
	}
      __decltype(__gnu_cxx::__ops::__iter_comp_val(_GLIBCXX_MOVE(__comp)))
	__cmp(_GLIBCXX_MOVE(__comp));
      std::__push_heap(__first, __holeIndex, __topIndex,
		       _GLIBCXX_MOVE(__value), __cmp);
    }
    2316:	48 83 c4 28          	add    $0x28,%rsp
    231a:	48 89 d6             	mov    %rdx,%rsi
    231d:	5b                   	pop    %rbx
    231e:	5d                   	pop    %rbp
    231f:	41 5c                	pop    %r12
    2321:	41 5d                	pop    %r13
    2323:	41 5e                	pop    %r14
    2325:	41 5f                	pop    %r15
    2327:	e9 d4 ee ff ff       	jmp    1200 <_ZdlPvm@plt>
    232c:	0f 1f 40 00          	nopl   0x0(%rax)
    2330:	31 f6                	xor    %esi,%esi
    2332:	31 d2                	xor    %edx,%edx
    2334:	e9 46 ff ff ff       	jmp    227f <_ZSt13__adjust_heapIN9__gnu_cxx17__normal_iteratorIPSt6vectorIiSaIiEES2_IS4_SaIS4_EEEElS4_NS0_5__ops15_Iter_less_iterEEvT_T0_SC_T1_T2_.isra.0+0x20f>
    2339:	0f 1f 80 00 00 00 00 	nopl   0x0(%rax)
      return (__first2 == __last2) <=> true; // See PR 94006
    2340:	49 39 d5             	cmp    %rdx,%r13
    2343:	0f 85 ed fe ff ff    	jne    2236 <_ZSt13__adjust_heapIN9__gnu_cxx17__normal_iteratorIPSt6vectorIiSaIiEES2_IS4_SaIS4_EEEElS4_NS0_5__ops15_Iter_less_iterEEvT_T0_SC_T1_T2_.isra.0+0x1c6>
    2349:	eb a5                	jmp    22f0 <_ZSt13__adjust_heapIN9__gnu_cxx17__normal_iteratorIPSt6vectorIiSaIiEES2_IS4_SaIS4_EEEElS4_NS0_5__ops15_Iter_less_iterEEvT_T0_SC_T1_T2_.isra.0+0x280>
    234b:	48 83 c4 28          	add    $0x28,%rsp
    234f:	5b                   	pop    %rbx
    2350:	5d                   	pop    %rbp
    2351:	41 5c                	pop    %r12
    2353:	41 5d                	pop    %r13
    2355:	41 5e                	pop    %r14
    2357:	41 5f                	pop    %r15
    2359:	c3                   	ret
	  *(__first + __holeIndex) = _GLIBCXX_MOVE(*(__first
    235a:	48 8d 5c 1b 01       	lea    0x1(%rbx,%rbx,1),%rbx
	  _M_start = __x._M_start;
    235f:	49 8b 3e             	mov    (%r14),%rdi
    2362:	66 0f ef c0          	pxor   %xmm0,%xmm0
	  _M_end_of_storage = __x._M_end_of_storage;
    2366:	49 8b 76 10          	mov    0x10(%r14),%rsi
    236a:	48 8d 04 5b          	lea    (%rbx,%rbx,2),%rax
    236e:	4d 8d 2c c7          	lea    (%r15,%rax,8),%r13
	  _M_start = __x._M_start;
    2372:	f3 41 0f 6f 7d 00    	movdqu 0x0(%r13),%xmm7
    2378:	41 0f 11 3e          	movups %xmm7,(%r14)
	  _M_end_of_storage = __x._M_end_of_storage;
    237c:	49 8b 45 10          	mov    0x10(%r13),%rax
    2380:	49 89 46 10          	mov    %rax,0x10(%r14)
    2384:	49 c7 45 10 00 00 00 	movq   $0x0,0x10(%r13)
    238b:	00 
	  _M_start = __x._M_start;
    238c:	41 0f 11 45 00       	movups %xmm0,0x0(%r13)
	if (__p)
    2391:	48 85 ff             	test   %rdi,%rdi
    2394:	74 08                	je     239e <_ZSt13__adjust_heapIN9__gnu_cxx17__normal_iteratorIPSt6vectorIiSaIiEES2_IS4_SaIS4_EEEElS4_NS0_5__ops15_Iter_less_iterEEvT_T0_SC_T1_T2_.isra.0+0x32e>
		      _M_impl._M_end_of_storage - _M_impl._M_start);
    2396:	48 29 fe             	sub    %rdi,%rsi
    2399:	e8 62 ee ff ff       	call   1200 <_ZdlPvm@plt>
    239e:	4d 89 ee             	mov    %r13,%r14
    23a1:	e9 27 fe ff ff       	jmp    21cd <_ZSt13__adjust_heapIN9__gnu_cxx17__normal_iteratorIPSt6vectorIiSaIiEES2_IS4_SaIS4_EEEElS4_NS0_5__ops15_Iter_less_iterEEvT_T0_SC_T1_T2_.isra.0+0x15d>
    23a6:	49 8b 56 10          	mov    0x10(%r14),%rdx
    23aa:	48 29 fa             	sub    %rdi,%rdx
    23ad:	e9 4c ff ff ff       	jmp    22fe <_ZSt13__adjust_heapIN9__gnu_cxx17__normal_iteratorIPSt6vectorIiSaIiEES2_IS4_SaIS4_EEEElS4_NS0_5__ops15_Iter_less_iterEEvT_T0_SC_T1_T2_.isra.0+0x28e>
    23b2:	66 2e 0f 1f 84 00 00 	cs nopw 0x0(%rax,%rax,1)
    23b9:	00 00 00 
    23bc:	0f 1f 40 00          	nopl   0x0(%rax)

00000000000023c0 <_ZSt16__introsort_loopIN9__gnu_cxx17__normal_iteratorIPSt6vectorIiSaIiEES2_IS4_SaIS4_EEEElNS0_5__ops15_Iter_less_iterEEvT_SB_T0_T1_.isra.0>:

  /// This is a helper function for the sort routine.
  template<typename _RandomAccessIterator, typename _Size, typename _Compare>
    _GLIBCXX20_CONSTEXPR
    void
    __introsort_loop(_RandomAccessIterator __first,
    23c0:	41 57                	push   %r15
    23c2:	41 56                	push   %r14
    23c4:	41 55                	push   %r13
    23c6:	41 54                	push   %r12
    23c8:	55                   	push   %rbp
    23c9:	53                   	push   %rbx
    23ca:	48 83 ec 28          	sub    $0x28,%rsp
    _GLIBCXX_NODISCARD _GLIBCXX20_CONSTEXPR
    inline typename __normal_iterator<_Iterator, _Container>::difference_type
    operator-(const __normal_iterator<_Iterator, _Container>& __lhs,
	      const __normal_iterator<_Iterator, _Container>& __rhs)
    _GLIBCXX_NOEXCEPT
    { return __lhs.base() - __rhs.base(); }
    23ce:	64 48 8b 04 25 28 00 	mov    %fs:0x28,%rax
    23d5:	00 00 
    23d7:	48 89 44 24 18       	mov    %rax,0x18(%rsp)
    23dc:	48 89 f0             	mov    %rsi,%rax
    23df:	48 29 f8             	sub    %rdi,%rax
		     _RandomAccessIterator __last,
		     _Size __depth_limit, _Compare __comp)
    {
      while (__last - __first > int(_S_threshold))
    23e2:	48 3d 80 01 00 00    	cmp    $0x180,%rax
    23e8:	0f 8e 54 03 00 00    	jle    2742 <_ZSt16__introsort_loopIN9__gnu_cxx17__normal_iteratorIPSt6vectorIiSaIiEES2_IS4_SaIS4_EEEElNS0_5__ops15_Iter_less_iterEEvT_SB_T0_T1_.isra.0+0x382>
    23ee:	49 89 fc             	mov    %rdi,%r12
    23f1:	49 89 d7             	mov    %rdx,%r15
      { return __normal_iterator(_M_current + __n); }
    23f4:	48 8d 5f 18          	lea    0x18(%rdi),%rbx
    23f8:	49 89 f5             	mov    %rsi,%r13
    { return __lhs.base() - __rhs.base(); }
    23fb:	49 be ab aa aa aa aa 	movabs $0xaaaaaaaaaaaaaaab,%r14
    2402:	aa aa aa 
	{
	  if (__depth_limit == 0)
    2405:	48 85 d2             	test   %rdx,%rdx
    2408:	0f 84 19 02 00 00    	je     2627 <_ZSt16__introsort_loopIN9__gnu_cxx17__normal_iteratorIPSt6vectorIiSaIiEES2_IS4_SaIS4_EEEElNS0_5__ops15_Iter_less_iterEEvT_SB_T0_T1_.isra.0+0x267>
    240e:	48 c1 f8 03          	sar    $0x3,%rax
      : _M_current(__i) { }
    2412:	f3 41 0f 6f 4c 24 18 	movdqu 0x18(%r12),%xmm1
	    {
	      std::__partial_sort(__first, __last, __last, __comp);
	      return;
	    }
	  --__depth_limit;
    2419:	49 83 ef 01          	sub    $0x1,%r15
    { return __lhs.base() - __rhs.base(); }
    241d:	49 0f af c6          	imul   %r14,%rax
    2421:	0f 12 e9             	movhlps %xmm1,%xmm5
    2424:	66 48 0f 7e c9       	movq   %xmm1,%rcx
    2429:	66 48 0f 7e ef       	movq   %xmm5,%rdi
      _RandomAccessIterator __mid = __first + (__last - __first) / 2;
    242e:	48 89 c2             	mov    %rax,%rdx
      { return __normal_iterator(_M_current + __n); }
    2431:	48 83 e0 fe          	and    $0xfffffffffffffffe,%rax
    2435:	48 d1 fa             	sar    $1,%rdx
    2438:	48 01 d0             	add    %rdx,%rax
    243b:	4d 8d 14 c4          	lea    (%r12,%rax,8),%r10
      : _M_current(__i) { }
    243f:	f3 41 0f 6f 02       	movdqu (%r10),%xmm0
    2444:	0f 12 f8             	movhlps %xmm0,%xmm7
    2447:	66 48 0f 7e c6       	movq   %xmm0,%rsi
      while (__first1 != __last1)
    244c:	66 49 0f 7e f9       	movq   %xmm7,%r9
    2451:	48 39 f9             	cmp    %rdi,%rcx
    2454:	0f 84 c2 04 00 00    	je     291c <_ZSt16__introsort_loopIN9__gnu_cxx17__normal_iteratorIPSt6vectorIiSaIiEES2_IS4_SaIS4_EEEElNS0_5__ops15_Iter_less_iterEEvT_SB_T0_T1_.isra.0+0x55c>
	  if (__first2 == __last2)
    245a:	4c 39 ce             	cmp    %r9,%rsi
    245d:	0f 84 d7 04 00 00    	je     293a <_ZSt16__introsort_loopIN9__gnu_cxx17__normal_iteratorIPSt6vectorIiSaIiEES2_IS4_SaIS4_EEEElNS0_5__ops15_Iter_less_iterEEvT_SB_T0_T1_.isra.0+0x57a>
    2463:	48 89 ca             	mov    %rcx,%rdx
    2466:	48 89 f0             	mov    %rsi,%rax
    2469:	0f 1f 80 00 00 00 00 	nopl   0x0(%rax)
    2470:	44 8b 18             	mov    (%rax),%r11d
    2473:	44 39 1a             	cmp    %r11d,(%rdx)
    2476:	0f 84 0b 03 00 00    	je     2787 <_ZSt16__introsort_loopIN9__gnu_cxx17__normal_iteratorIPSt6vectorIiSaIiEES2_IS4_SaIS4_EEEElNS0_5__ops15_Iter_less_iterEEvT_SB_T0_T1_.isra.0+0x3c7>
    247c:	0f 8c 9e 03 00 00    	jl     2820 <_ZSt16__introsort_loopIN9__gnu_cxx17__normal_iteratorIPSt6vectorIiSaIiEES2_IS4_SaIS4_EEEElNS0_5__ops15_Iter_less_iterEEvT_SB_T0_T1_.isra.0+0x460>
    2482:	49 8b 55 f0          	mov    -0x10(%r13),%rdx
    2486:	4d 8b 45 e8          	mov    -0x18(%r13),%r8
    248a:	4c 39 c2             	cmp    %r8,%rdx
    248d:	0f 84 42 03 00 00    	je     27d5 <_ZSt16__introsort_loopIN9__gnu_cxx17__normal_iteratorIPSt6vectorIiSaIiEES2_IS4_SaIS4_EEEElNS0_5__ops15_Iter_less_iterEEvT_SB_T0_T1_.isra.0+0x415>
      while (__first1 != __last1)
    2493:	49 89 cb             	mov    %rcx,%r11
    2496:	4c 89 c0             	mov    %r8,%rax
    2499:	8b 28                	mov    (%rax),%ebp
    249b:	41 39 2b             	cmp    %ebp,(%r11)
    249e:	0f 84 02 03 00 00    	je     27a6 <_ZSt16__introsort_loopIN9__gnu_cxx17__normal_iteratorIPSt6vectorIiSaIiEES2_IS4_SaIS4_EEEElNS0_5__ops15_Iter_less_iterEEvT_SB_T0_T1_.isra.0+0x3e6>
    24a4:	0f 8c ad 03 00 00    	jl     2857 <_ZSt16__introsort_loopIN9__gnu_cxx17__normal_iteratorIPSt6vectorIiSaIiEES2_IS4_SaIS4_EEEElNS0_5__ops15_Iter_less_iterEEvT_SB_T0_T1_.isra.0+0x497>
    24aa:	4c 39 ce             	cmp    %r9,%rsi
    24ad:	74 13                	je     24c2 <_ZSt16__introsort_loopIN9__gnu_cxx17__normal_iteratorIPSt6vectorIiSaIiEES2_IS4_SaIS4_EEEElNS0_5__ops15_Iter_less_iterEEvT_SB_T0_T1_.isra.0+0x102>
	  if (__first2 == __last2)
    24af:	4c 89 c0             	mov    %r8,%rax
    24b2:	8b 38                	mov    (%rax),%edi
    24b4:	39 3e                	cmp    %edi,(%rsi)
    24b6:	0f 84 48 03 00 00    	je     2804 <_ZSt16__introsort_loopIN9__gnu_cxx17__normal_iteratorIPSt6vectorIiSaIiEES2_IS4_SaIS4_EEEElNS0_5__ops15_Iter_less_iterEEvT_SB_T0_T1_.isra.0+0x444>
    24bc:	0f 8d 13 03 00 00    	jge    27d5 <_ZSt16__introsort_loopIN9__gnu_cxx17__normal_iteratorIPSt6vectorIiSaIiEES2_IS4_SaIS4_EEEElNS0_5__ops15_Iter_less_iterEEvT_SB_T0_T1_.isra.0+0x415>
	  _M_start = __x._M_start;
    24c2:	66 49 0f 6e c8       	movq   %r8,%xmm1
    24c7:	f3 41 0f 6f 04 24    	movdqu (%r12),%xmm0
	  _M_end_of_storage = __x._M_end_of_storage;
    24cd:	49 8b 44 24 10       	mov    0x10(%r12),%rax
	  _M_start = __x._M_start;
    24d2:	41 0f 16 4d f0       	movhps -0x10(%r13),%xmm1
    24d7:	41 0f 11 0c 24       	movups %xmm1,(%r12)
	  _M_end_of_storage = __x._M_end_of_storage;
    24dc:	49 8b 55 f8          	mov    -0x8(%r13),%rdx
    24e0:	49 89 54 24 10       	mov    %rdx,0x10(%r12)
    24e5:	49 89 45 f8          	mov    %rax,-0x8(%r13)
	  _M_start = __x._M_start;
    24e9:	41 0f 11 45 e8       	movups %xmm0,-0x18(%r13)
    24ee:	49 8b 7c 24 08       	mov    0x8(%r12),%rdi
    24f3:	49 8b 0c 24          	mov    (%r12),%rcx
    24f7:	4d 89 e9             	mov    %r13,%r9
    24fa:	48 89 dd             	mov    %rbx,%rbp
    24fd:	0f 1f 00             	nopl   (%rax)
    2500:	f3 0f 6f 45 00       	movdqu 0x0(%rbp),%xmm0
      while (__first1 != __last1)
    2505:	48 89 ca             	mov    %rcx,%rdx
    2508:	0f 12 d8             	movhlps %xmm0,%xmm3
    250b:	66 48 0f 7e c0       	movq   %xmm0,%rax
    2510:	66 48 0f 7e de       	movq   %xmm3,%rsi
    2515:	48 39 f0             	cmp    %rsi,%rax
    2518:	0f 84 a2 00 00 00    	je     25c0 <_ZSt16__introsort_loopIN9__gnu_cxx17__normal_iteratorIPSt6vectorIiSaIiEES2_IS4_SaIS4_EEEElNS0_5__ops15_Iter_less_iterEEvT_SB_T0_T1_.isra.0+0x200>
	  if (__first2 == __last2)
    251e:	48 39 f9             	cmp    %rdi,%rcx
    2521:	74 17                	je     253a <_ZSt16__introsort_loopIN9__gnu_cxx17__normal_iteratorIPSt6vectorIiSaIiEES2_IS4_SaIS4_EEEElNS0_5__ops15_Iter_less_iterEEvT_SB_T0_T1_.isra.0+0x17a>
    2523:	0f 1f 44 00 00       	nopl   0x0(%rax,%rax,1)
    2528:	44 8b 12             	mov    (%rdx),%r10d
    252b:	44 39 10             	cmp    %r10d,(%rax)
    252e:	0f 84 34 02 00 00    	je     2768 <_ZSt16__introsort_loopIN9__gnu_cxx17__normal_iteratorIPSt6vectorIiSaIiEES2_IS4_SaIS4_EEEElNS0_5__ops15_Iter_less_iterEEvT_SB_T0_T1_.isra.0+0x3a8>
    2534:	0f 8c 96 00 00 00    	jl     25d0 <_ZSt16__introsort_loopIN9__gnu_cxx17__normal_iteratorIPSt6vectorIiSaIiEES2_IS4_SaIS4_EEEElNS0_5__ops15_Iter_less_iterEEvT_SB_T0_T1_.isra.0+0x210>
	--_M_current;
    253a:	49 8d 51 e8          	lea    -0x18(%r9),%rdx
    253e:	66 90                	xchg   %ax,%ax
      : _M_current(__i) { }
    2540:	f3 0f 6f 0a          	movdqu (%rdx),%xmm1
    2544:	49 89 d1             	mov    %rdx,%r9
      __normal_iterator(const _Iterator& __i) _GLIBCXX_NOEXCEPT
    2547:	0f 12 e1             	movhlps %xmm1,%xmm4
    254a:	66 48 0f 7e c8       	movq   %xmm1,%rax
      while (__first1 != __last1)
    254f:	66 49 0f 7e e0       	movq   %xmm4,%r8
    2554:	48 39 f9             	cmp    %rdi,%rcx
    2557:	74 57                	je     25b0 <_ZSt16__introsort_loopIN9__gnu_cxx17__normal_iteratorIPSt6vectorIiSaIiEES2_IS4_SaIS4_EEEElNS0_5__ops15_Iter_less_iterEEvT_SB_T0_T1_.isra.0+0x1f0>
	  if (__first2 == __last2)
    2559:	4c 39 c0             	cmp    %r8,%rax
    255c:	74 14                	je     2572 <_ZSt16__introsort_loopIN9__gnu_cxx17__normal_iteratorIPSt6vectorIiSaIiEES2_IS4_SaIS4_EEEElNS0_5__ops15_Iter_less_iterEEvT_SB_T0_T1_.isra.0+0x1b2>
    255e:	48 89 ce             	mov    %rcx,%rsi
    2561:	0f 1f 80 00 00 00 00 	nopl   0x0(%rax)
    2568:	44 8b 18             	mov    (%rax),%r11d
    256b:	44 39 1e             	cmp    %r11d,(%rsi)
    256e:	74 70                	je     25e0 <_ZSt16__introsort_loopIN9__gnu_cxx17__normal_iteratorIPSt6vectorIiSaIiEES2_IS4_SaIS4_EEEElNS0_5__ops15_Iter_less_iterEEvT_SB_T0_T1_.isra.0+0x220>
    2570:	7c 46                	jl     25b8 <_ZSt16__introsort_loopIN9__gnu_cxx17__normal_iteratorIPSt6vectorIiSaIiEES2_IS4_SaIS4_EEEElNS0_5__ops15_Iter_less_iterEEvT_SB_T0_T1_.isra.0+0x1f8>
	  if (!(__first < __last))
    2572:	48 39 d5             	cmp    %rdx,%rbp
    2575:	0f 83 80 00 00 00    	jae    25fb <_ZSt16__introsort_loopIN9__gnu_cxx17__normal_iteratorIPSt6vectorIiSaIiEES2_IS4_SaIS4_EEEElNS0_5__ops15_Iter_less_iterEEvT_SB_T0_T1_.isra.0+0x23b>
    257b:	0f 1f 44 00 00       	nopl   0x0(%rax,%rax,1)
    2580:	0f 11 4d 00          	movups %xmm1,0x0(%rbp)
	  _M_end_of_storage = __x._M_end_of_storage;
    2584:	48 8b 45 10          	mov    0x10(%rbp),%rax
    2588:	48 8b 4a 10          	mov    0x10(%rdx),%rcx
	++_M_current;
    258c:	48 83 c5 18          	add    $0x18,%rbp
    2590:	48 89 4d f8          	mov    %rcx,-0x8(%rbp)
    2594:	48 89 42 10          	mov    %rax,0x10(%rdx)
	  _M_start = __x._M_start;
    2598:	0f 11 02             	movups %xmm0,(%rdx)
      : _M_current(__i) { }
    259b:	49 8b 7c 24 08       	mov    0x8(%r12),%rdi
    25a0:	49 8b 0c 24          	mov    (%r12),%rcx
	return *this;
    25a4:	e9 57 ff ff ff       	jmp    2500 <_ZSt16__introsort_loopIN9__gnu_cxx17__normal_iteratorIPSt6vectorIiSaIiEES2_IS4_SaIS4_EEEElNS0_5__ops15_Iter_less_iterEEvT_SB_T0_T1_.isra.0+0x140>
    25a9:	0f 1f 80 00 00 00 00 	nopl   0x0(%rax)
      return (__first2 == __last2) <=> true; // See PR 94006
    25b0:	4c 39 c0             	cmp    %r8,%rax
    25b3:	74 bd                	je     2572 <_ZSt16__introsort_loopIN9__gnu_cxx17__normal_iteratorIPSt6vectorIiSaIiEES2_IS4_SaIS4_EEEElNS0_5__ops15_Iter_less_iterEEvT_SB_T0_T1_.isra.0+0x1b2>
    25b5:	0f 1f 00             	nopl   (%rax)
      operator--() _GLIBCXX_NOEXCEPT
    25b8:	48 83 ea 18          	sub    $0x18,%rdx
	return *this;
    25bc:	eb 82                	jmp    2540 <_ZSt16__introsort_loopIN9__gnu_cxx17__normal_iteratorIPSt6vectorIiSaIiEES2_IS4_SaIS4_EEEElNS0_5__ops15_Iter_less_iterEEvT_SB_T0_T1_.isra.0+0x180>
    25be:	66 90                	xchg   %ax,%ax
    25c0:	48 39 d7             	cmp    %rdx,%rdi
    25c3:	0f 84 71 ff ff ff    	je     253a <_ZSt16__introsort_loopIN9__gnu_cxx17__normal_iteratorIPSt6vectorIiSaIiEES2_IS4_SaIS4_EEEElNS0_5__ops15_Iter_less_iterEEvT_SB_T0_T1_.isra.0+0x17a>
    25c9:	0f 1f 80 00 00 00 00 	nopl   0x0(%rax)
      operator++() _GLIBCXX_NOEXCEPT
    25d0:	48 83 c5 18          	add    $0x18,%rbp
	return *this;
    25d4:	e9 27 ff ff ff       	jmp    2500 <_ZSt16__introsort_loopIN9__gnu_cxx17__normal_iteratorIPSt6vectorIiSaIiEES2_IS4_SaIS4_EEEElNS0_5__ops15_Iter_less_iterEEvT_SB_T0_T1_.isra.0+0x140>
    25d9:	0f 1f 80 00 00 00 00 	nopl   0x0(%rax)
	++_M_current;
    25e0:	48 83 c6 04          	add    $0x4,%rsi
    25e4:	48 83 c0 04          	add    $0x4,%rax
      while (__first1 != __last1)
    25e8:	48 39 fe             	cmp    %rdi,%rsi
    25eb:	74 c3                	je     25b0 <_ZSt16__introsort_loopIN9__gnu_cxx17__normal_iteratorIPSt6vectorIiSaIiEES2_IS4_SaIS4_EEEElNS0_5__ops15_Iter_less_iterEEvT_SB_T0_T1_.isra.0+0x1f0>
	  if (__first2 == __last2)
    25ed:	4c 39 c0             	cmp    %r8,%rax
    25f0:	0f 85 72 ff ff ff    	jne    2568 <_ZSt16__introsort_loopIN9__gnu_cxx17__normal_iteratorIPSt6vectorIiSaIiEES2_IS4_SaIS4_EEEElNS0_5__ops15_Iter_less_iterEEvT_SB_T0_T1_.isra.0+0x1a8>
    25f6:	48 39 d5             	cmp    %rdx,%rbp
    25f9:	72 85                	jb     2580 <_ZSt16__introsort_loopIN9__gnu_cxx17__normal_iteratorIPSt6vectorIiSaIiEES2_IS4_SaIS4_EEEElNS0_5__ops15_Iter_less_iterEEvT_SB_T0_T1_.isra.0+0x1c0>
	  _RandomAccessIterator __cut =
	    std::__unguarded_partition_pivot(__first, __last, __comp);
	  std::__introsort_loop(__cut, __last, __depth_limit, __comp);
    25fb:	4c 89 fa             	mov    %r15,%rdx
    25fe:	4c 89 ee             	mov    %r13,%rsi
    2601:	48 89 ef             	mov    %rbp,%rdi
    2604:	e8 b7 fd ff ff       	call   23c0 <_ZSt16__introsort_loopIN9__gnu_cxx17__normal_iteratorIPSt6vectorIiSaIiEES2_IS4_SaIS4_EEEElNS0_5__ops15_Iter_less_iterEEvT_SB_T0_T1_.isra.0>
    { return __lhs.base() - __rhs.base(); }
    2609:	48 89 e8             	mov    %rbp,%rax
    260c:	4c 29 e0             	sub    %r12,%rax
      while (__last - __first > int(_S_threshold))
    260f:	48 3d 80 01 00 00    	cmp    $0x180,%rax
    2615:	0f 8e 27 01 00 00    	jle    2742 <_ZSt16__introsort_loopIN9__gnu_cxx17__normal_iteratorIPSt6vectorIiSaIiEES2_IS4_SaIS4_EEEElNS0_5__ops15_Iter_less_iterEEvT_SB_T0_T1_.isra.0+0x382>
    261b:	49 89 ed             	mov    %rbp,%r13
	  if (__depth_limit == 0)
    261e:	4d 85 ff             	test   %r15,%r15
    2621:	0f 85 e7 fd ff ff    	jne    240e <_ZSt16__introsort_loopIN9__gnu_cxx17__normal_iteratorIPSt6vectorIiSaIiEES2_IS4_SaIS4_EEEElNS0_5__ops15_Iter_less_iterEEvT_SB_T0_T1_.isra.0+0x4e>
    2627:	48 c1 f8 03          	sar    $0x3,%rax
    262b:	49 89 e6             	mov    %rsp,%r14
    262e:	48 ba ab aa aa aa aa 	movabs $0xaaaaaaaaaaaaaaab,%rdx
    2635:	aa aa aa 
    2638:	48 0f af c2          	imul   %rdx,%rax
    263c:	48 89 c3             	mov    %rax,%rbx

      if (__last - __first < 2)
	return;

      const _DistanceType __len = __last - __first;
      _DistanceType __parent = (__len - 2) / 2;
    263f:	48 8d 40 fe          	lea    -0x2(%rax),%rax
    2643:	49 89 c7             	mov    %rax,%r15
    2646:	48 83 e0 fe          	and    $0xfffffffffffffffe,%rax
    264a:	49 d1 ff             	sar    $1,%r15
    264d:	4c 01 f8             	add    %r15,%rax
    2650:	49 8d 2c c4          	lea    (%r12,%rax,8),%rbp
    2654:	eb 04                	jmp    265a <_ZSt16__introsort_loopIN9__gnu_cxx17__normal_iteratorIPSt6vectorIiSaIiEES2_IS4_SaIS4_EEEElNS0_5__ops15_Iter_less_iterEEvT_SB_T0_T1_.isra.0+0x29a>
	  _ValueType __value = _GLIBCXX_MOVE(*(__first + __parent));
	  std::__adjust_heap(__first, __parent, __len, _GLIBCXX_MOVE(__value),
			     __comp);
	  if (__parent == 0)
	    return;
	  __parent--;
    2656:	49 83 ef 01          	sub    $0x1,%r15
	  _M_end_of_storage(__x._M_end_of_storage)
    265a:	48 8b 45 10          	mov    0x10(%rbp),%rax
	: _M_start(__x._M_start), _M_finish(__x._M_finish),
    265e:	f3 0f 6f 45 00       	movdqu 0x0(%rbp),%xmm0
	{ __x._M_start = __x._M_finish = __x._M_end_of_storage = pointer(); }
    2663:	66 0f ef ed          	pxor   %xmm5,%xmm5
	  std::__adjust_heap(__first, __parent, __len, _GLIBCXX_MOVE(__value),
    2667:	4c 89 e7             	mov    %r12,%rdi
    266a:	0f 11 6d 00          	movups %xmm5,0x0(%rbp)
    266e:	4c 89 f1             	mov    %r14,%rcx
    2671:	48 89 da             	mov    %rbx,%rdx
    2674:	4c 89 fe             	mov    %r15,%rsi
    2677:	48 c7 45 10 00 00 00 	movq   $0x0,0x10(%rbp)
    267e:	00 
	  _M_end_of_storage(__x._M_end_of_storage)
    267f:	48 89 44 24 10       	mov    %rax,0x10(%rsp)
	: _M_start(__x._M_start), _M_finish(__x._M_finish),
    2684:	0f 29 04 24          	movaps %xmm0,(%rsp)
    2688:	e8 e3 f9 ff ff       	call   2070 <_ZSt13__adjust_heapIN9__gnu_cxx17__normal_iteratorIPSt6vectorIiSaIiEES2_IS4_SaIS4_EEEElS4_NS0_5__ops15_Iter_less_iterEEvT_T0_SC_T1_T2_.isra.0>
		      _M_impl._M_end_of_storage - _M_impl._M_start);
    268d:	48 8b 3c 24          	mov    (%rsp),%rdi
	if (__p)
    2691:	48 85 ff             	test   %rdi,%rdi
    2694:	74 0d                	je     26a3 <_ZSt16__introsort_loopIN9__gnu_cxx17__normal_iteratorIPSt6vectorIiSaIiEES2_IS4_SaIS4_EEEElNS0_5__ops15_Iter_less_iterEEvT_SB_T0_T1_.isra.0+0x2e3>
		      _M_impl._M_end_of_storage - _M_impl._M_start);
    2696:	48 8b 74 24 10       	mov    0x10(%rsp),%rsi
    269b:	48 29 fe             	sub    %rdi,%rsi
    269e:	e8 5d eb ff ff       	call   1200 <_ZdlPvm@plt>
	  if (__parent == 0)
    26a3:	48 83 ed 18          	sub    $0x18,%rbp
    26a7:	4d 85 ff             	test   %r15,%r15
    26aa:	75 aa                	jne    2656 <_ZSt16__introsort_loopIN9__gnu_cxx17__normal_iteratorIPSt6vectorIiSaIiEES2_IS4_SaIS4_EEEElNS0_5__ops15_Iter_less_iterEEvT_SB_T0_T1_.isra.0+0x296>
    26ac:	48 bd ab aa aa aa aa 	movabs $0xaaaaaaaaaaaaaaab,%rbp
    26b3:	aa aa aa 
    26b6:	49 83 ed 18          	sub    $0x18,%r13
	{ __x._M_start = __x._M_finish = __x._M_end_of_storage = pointer(); }
    26ba:	66 0f ef c0          	pxor   %xmm0,%xmm0
	: _M_start(__x._M_start), _M_finish(__x._M_finish),
    26be:	f3 41 0f 6f 4d 00    	movdqu 0x0(%r13),%xmm1
	  _M_end_of_storage(__x._M_end_of_storage)
    26c4:	49 8b 45 10          	mov    0x10(%r13),%rax
      std::__adjust_heap(__first, _DistanceType(0),
    26c8:	31 f6                	xor    %esi,%esi
	{ __x._M_start = __x._M_finish = __x._M_end_of_storage = pointer(); }
    26ca:	41 0f 11 45 00       	movups %xmm0,0x0(%r13)
    26cf:	4c 89 eb             	mov    %r13,%rbx
    26d2:	4c 89 e7             	mov    %r12,%rdi
    26d5:	4c 89 f1             	mov    %r14,%rcx
    26d8:	49 c7 45 10 00 00 00 	movq   $0x0,0x10(%r13)
    26df:	00 
	  _M_start = __x._M_start;
    26e0:	f3 41 0f 6f 34 24    	movdqu (%r12),%xmm6
    26e6:	4c 29 e3             	sub    %r12,%rbx
	  _M_end_of_storage(__x._M_end_of_storage)
    26e9:	48 89 44 24 10       	mov    %rax,0x10(%rsp)
	  _M_start = __x._M_start;
    26ee:	41 0f 11 75 00       	movups %xmm6,0x0(%r13)
	  _M_end_of_storage = __x._M_end_of_storage;
    26f3:	49 8b 54 24 10       	mov    0x10(%r12),%rdx
	: _M_start(__x._M_start), _M_finish(__x._M_finish),
    26f8:	0f 29 0c 24          	movaps %xmm1,(%rsp)
	  _M_end_of_storage = __x._M_end_of_storage;
    26fc:	49 89 55 10          	mov    %rdx,0x10(%r13)
    2700:	48 89 da             	mov    %rbx,%rdx
    2703:	48 c1 fa 03          	sar    $0x3,%rdx
	  _M_start = __x._M_start;
    2707:	41 0f 11 04 24       	movups %xmm0,(%r12)
	  _M_end_of_storage = __x._M_end_of_storage;
    270c:	49 c7 44 24 10 00 00 	movq   $0x0,0x10(%r12)
    2713:	00 00 
    2715:	48 0f af d5          	imul   %rbp,%rdx
    2719:	e8 52 f9 ff ff       	call   2070 <_ZSt13__adjust_heapIN9__gnu_cxx17__normal_iteratorIPSt6vectorIiSaIiEES2_IS4_SaIS4_EEEElS4_NS0_5__ops15_Iter_less_iterEEvT_T0_SC_T1_T2_.isra.0>
		      _M_impl._M_end_of_storage - _M_impl._M_start);
    271e:	48 8b 3c 24          	mov    (%rsp),%rdi
	if (__p)
    2722:	48 85 ff             	test   %rdi,%rdi
    2725:	74 0d                	je     2734 <_ZSt16__introsort_loopIN9__gnu_cxx17__normal_iteratorIPSt6vectorIiSaIiEES2_IS4_SaIS4_EEEElNS0_5__ops15_Iter_less_iterEEvT_SB_T0_T1_.isra.0+0x374>
		      _M_impl._M_end_of_storage - _M_impl._M_start);
    2727:	48 8b 74 24 10       	mov    0x10(%rsp),%rsi
    272c:	48 29 fe             	sub    %rdi,%rsi
    272f:	e8 cc ea ff ff       	call   1200 <_ZdlPvm@plt>
    _GLIBCXX20_CONSTEXPR
    void
    __sort_heap(_RandomAccessIterator __first, _RandomAccessIterator __last,
		_Compare& __comp)
    {
      while (__last - __first > 1)
    2734:	49 83 ed 18          	sub    $0x18,%r13
    2738:	48 83 fb 18          	cmp    $0x18,%rbx
    273c:	0f 8f 78 ff ff ff    	jg     26ba <_ZSt16__introsort_loopIN9__gnu_cxx17__normal_iteratorIPSt6vectorIiSaIiEES2_IS4_SaIS4_EEEElNS0_5__ops15_Iter_less_iterEEvT_SB_T0_T1_.isra.0+0x2fa>
	  __last = __cut;
	}
    }
    2742:	48 8b 44 24 18       	mov    0x18(%rsp),%rax
    2747:	64 48 2b 04 25 28 00 	sub    %fs:0x28,%rax
    274e:	00 00 
    2750:	0f 85 02 02 00 00    	jne    2958 <_ZSt16__introsort_loopIN9__gnu_cxx17__normal_iteratorIPSt6vectorIiSaIiEES2_IS4_SaIS4_EEEElNS0_5__ops15_Iter_less_iterEEvT_SB_T0_T1_.isra.0+0x598>
    2756:	48 83 c4 28          	add    $0x28,%rsp
    275a:	5b                   	pop    %rbx
    275b:	5d                   	pop    %rbp
    275c:	41 5c                	pop    %r12
    275e:	41 5d                	pop    %r13
    2760:	41 5e                	pop    %r14
    2762:	41 5f                	pop    %r15
    2764:	c3                   	ret
    2765:	0f 1f 00             	nopl   (%rax)
	++_M_current;
    2768:	48 83 c0 04          	add    $0x4,%rax
    276c:	48 83 c2 04          	add    $0x4,%rdx
      while (__first1 != __last1)
    2770:	48 39 f0             	cmp    %rsi,%rax
    2773:	0f 84 47 fe ff ff    	je     25c0 <_ZSt16__introsort_loopIN9__gnu_cxx17__normal_iteratorIPSt6vectorIiSaIiEES2_IS4_SaIS4_EEEElNS0_5__ops15_Iter_less_iterEEvT_SB_T0_T1_.isra.0+0x200>
	  if (__first2 == __last2)
    2779:	48 39 fa             	cmp    %rdi,%rdx
    277c:	0f 85 a6 fd ff ff    	jne    2528 <_ZSt16__introsort_loopIN9__gnu_cxx17__normal_iteratorIPSt6vectorIiSaIiEES2_IS4_SaIS4_EEEElNS0_5__ops15_Iter_less_iterEEvT_SB_T0_T1_.isra.0+0x168>
    2782:	e9 b3 fd ff ff       	jmp    253a <_ZSt16__introsort_loopIN9__gnu_cxx17__normal_iteratorIPSt6vectorIiSaIiEES2_IS4_SaIS4_EEEElNS0_5__ops15_Iter_less_iterEEvT_SB_T0_T1_.isra.0+0x17a>
    2787:	48 83 c2 04          	add    $0x4,%rdx
    278b:	48 83 c0 04          	add    $0x4,%rax
      while (__first1 != __last1)
    278f:	48 39 fa             	cmp    %rdi,%rdx
    2792:	0f 84 2c 01 00 00    	je     28c4 <_ZSt16__introsort_loopIN9__gnu_cxx17__normal_iteratorIPSt6vectorIiSaIiEES2_IS4_SaIS4_EEEElNS0_5__ops15_Iter_less_iterEEvT_SB_T0_T1_.isra.0+0x504>
	  if (__first2 == __last2)
    2798:	4c 39 c8             	cmp    %r9,%rax
    279b:	0f 85 cf fc ff ff    	jne    2470 <_ZSt16__introsort_loopIN9__gnu_cxx17__normal_iteratorIPSt6vectorIiSaIiEES2_IS4_SaIS4_EEEElNS0_5__ops15_Iter_less_iterEEvT_SB_T0_T1_.isra.0+0xb0>
    27a1:	e9 dc fc ff ff       	jmp    2482 <_ZSt16__introsort_loopIN9__gnu_cxx17__normal_iteratorIPSt6vectorIiSaIiEES2_IS4_SaIS4_EEEElNS0_5__ops15_Iter_less_iterEEvT_SB_T0_T1_.isra.0+0xc2>
    27a6:	49 83 c3 04          	add    $0x4,%r11
    27aa:	48 83 c0 04          	add    $0x4,%rax
      while (__first1 != __last1)
    27ae:	49 39 fb             	cmp    %rdi,%r11
    27b1:	0f 84 23 01 00 00    	je     28da <_ZSt16__introsort_loopIN9__gnu_cxx17__normal_iteratorIPSt6vectorIiSaIiEES2_IS4_SaIS4_EEEElNS0_5__ops15_Iter_less_iterEEvT_SB_T0_T1_.isra.0+0x51a>
	  if (__first2 == __last2)
    27b7:	48 39 d0             	cmp    %rdx,%rax
    27ba:	0f 85 d9 fc ff ff    	jne    2499 <_ZSt16__introsort_loopIN9__gnu_cxx17__normal_iteratorIPSt6vectorIiSaIiEES2_IS4_SaIS4_EEEElNS0_5__ops15_Iter_less_iterEEvT_SB_T0_T1_.isra.0+0xd9>
      while (__first1 != __last1)
    27c0:	4c 39 ce             	cmp    %r9,%rsi
    27c3:	0f 85 e6 fc ff ff    	jne    24af <_ZSt16__introsort_loopIN9__gnu_cxx17__normal_iteratorIPSt6vectorIiSaIiEES2_IS4_SaIS4_EEEElNS0_5__ops15_Iter_less_iterEEvT_SB_T0_T1_.isra.0+0xef>
    27c9:	4c 89 c0             	mov    %r8,%rax
      return (__first2 == __last2) <=> true; // See PR 94006
    27cc:	48 39 d0             	cmp    %rdx,%rax
    27cf:	0f 85 ed fc ff ff    	jne    24c2 <_ZSt16__introsort_loopIN9__gnu_cxx17__normal_iteratorIPSt6vectorIiSaIiEES2_IS4_SaIS4_EEEElNS0_5__ops15_Iter_less_iterEEvT_SB_T0_T1_.isra.0+0x102>
	  _M_start = __x._M_start;
    27d5:	f3 41 0f 6f 0c 24    	movdqu (%r12),%xmm1
	  _M_end_of_storage = __x._M_end_of_storage;
    27db:	49 8b 44 24 10       	mov    0x10(%r12),%rax
	  _M_start = __x._M_start;
    27e0:	41 0f 11 04 24       	movups %xmm0,(%r12)
	  _M_end_of_storage = __x._M_end_of_storage;
    27e5:	49 8b 52 10          	mov    0x10(%r10),%rdx
    27e9:	49 89 54 24 10       	mov    %rdx,0x10(%r12)
    27ee:	49 89 42 10          	mov    %rax,0x10(%r10)
	  _M_start = __x._M_start;
    27f2:	41 0f 11 0a          	movups %xmm1,(%r10)
      : _M_current(__i) { }
    27f6:	49 8b 7c 24 08       	mov    0x8(%r12),%rdi
    27fb:	49 8b 0c 24          	mov    (%r12),%rcx
    27ff:	e9 f3 fc ff ff       	jmp    24f7 <_ZSt16__introsort_loopIN9__gnu_cxx17__normal_iteratorIPSt6vectorIiSaIiEES2_IS4_SaIS4_EEEElNS0_5__ops15_Iter_less_iterEEvT_SB_T0_T1_.isra.0+0x137>
	++_M_current;
    2804:	48 83 c6 04          	add    $0x4,%rsi
    2808:	48 83 c0 04          	add    $0x4,%rax
      while (__first1 != __last1)
    280c:	4c 39 ce             	cmp    %r9,%rsi
    280f:	74 bb                	je     27cc <_ZSt16__introsort_loopIN9__gnu_cxx17__normal_iteratorIPSt6vectorIiSaIiEES2_IS4_SaIS4_EEEElNS0_5__ops15_Iter_less_iterEEvT_SB_T0_T1_.isra.0+0x40c>
	  if (__first2 == __last2)
    2811:	48 39 d0             	cmp    %rdx,%rax
    2814:	0f 85 98 fc ff ff    	jne    24b2 <_ZSt16__introsort_loopIN9__gnu_cxx17__normal_iteratorIPSt6vectorIiSaIiEES2_IS4_SaIS4_EEEElNS0_5__ops15_Iter_less_iterEEvT_SB_T0_T1_.isra.0+0xf2>
    281a:	eb b9                	jmp    27d5 <_ZSt16__introsort_loopIN9__gnu_cxx17__normal_iteratorIPSt6vectorIiSaIiEES2_IS4_SaIS4_EEEElNS0_5__ops15_Iter_less_iterEEvT_SB_T0_T1_.isra.0+0x415>
    281c:	0f 1f 40 00          	nopl   0x0(%rax)
      : _M_current(__i) { }
    2820:	49 8b 55 f0          	mov    -0x10(%r13),%rdx
    2824:	4d 8b 45 e8          	mov    -0x18(%r13),%r8
    2828:	49 39 d0             	cmp    %rdx,%r8
    282b:	74 2a                	je     2857 <_ZSt16__introsort_loopIN9__gnu_cxx17__normal_iteratorIPSt6vectorIiSaIiEES2_IS4_SaIS4_EEEElNS0_5__ops15_Iter_less_iterEEvT_SB_T0_T1_.isra.0+0x497>
    282d:	4c 89 c0             	mov    %r8,%rax
    2830:	44 8b 18             	mov    (%rax),%r11d
    2833:	44 39 1e             	cmp    %r11d,(%rsi)
    2836:	74 57                	je     288f <_ZSt16__introsort_loopIN9__gnu_cxx17__normal_iteratorIPSt6vectorIiSaIiEES2_IS4_SaIS4_EEEElNS0_5__ops15_Iter_less_iterEEvT_SB_T0_T1_.isra.0+0x4cf>
    2838:	7c 9b                	jl     27d5 <_ZSt16__introsort_loopIN9__gnu_cxx17__normal_iteratorIPSt6vectorIiSaIiEES2_IS4_SaIS4_EEEElNS0_5__ops15_Iter_less_iterEEvT_SB_T0_T1_.isra.0+0x415>
      while (__first1 != __last1)
    283a:	48 39 f9             	cmp    %rdi,%rcx
    283d:	0f 84 7f fc ff ff    	je     24c2 <_ZSt16__introsort_loopIN9__gnu_cxx17__normal_iteratorIPSt6vectorIiSaIiEES2_IS4_SaIS4_EEEElNS0_5__ops15_Iter_less_iterEEvT_SB_T0_T1_.isra.0+0x102>
    2843:	48 89 c8             	mov    %rcx,%rax
    2846:	4c 89 c6             	mov    %r8,%rsi
    2849:	44 8b 0e             	mov    (%rsi),%r9d
    284c:	44 39 08             	cmp    %r9d,(%rax)
    284f:	74 5f                	je     28b0 <_ZSt16__introsort_loopIN9__gnu_cxx17__normal_iteratorIPSt6vectorIiSaIiEES2_IS4_SaIS4_EEEElNS0_5__ops15_Iter_less_iterEEvT_SB_T0_T1_.isra.0+0x4f0>
    2851:	0f 8c 6b fc ff ff    	jl     24c2 <_ZSt16__introsort_loopIN9__gnu_cxx17__normal_iteratorIPSt6vectorIiSaIiEES2_IS4_SaIS4_EEEElNS0_5__ops15_Iter_less_iterEEvT_SB_T0_T1_.isra.0+0x102>
    2857:	f3 41 0f 6f 34 24    	movdqu (%r12),%xmm6
    285d:	f3 41 0f 6f 54 24 20 	movdqu 0x20(%r12),%xmm2
    2864:	41 0f 11 0c 24       	movups %xmm1,(%r12)
    2869:	f3 41 0f 6f 7c 24 10 	movdqu 0x10(%r12),%xmm7
    2870:	66 0f 6f c6          	movdqa %xmm6,%xmm0
    2874:	66 0f c6 d6 01       	shufpd $0x1,%xmm6,%xmm2
	  _M_end_of_storage = __x._M_end_of_storage;
    2879:	41 0f 11 54 24 10    	movups %xmm2,0x10(%r12)
	  _M_start = __x._M_start;
    287f:	66 0f c6 c7 01       	shufpd $0x1,%xmm7,%xmm0
	  _M_end_of_storage = __x._M_end_of_storage;
    2884:	41 0f 11 44 24 20    	movups %xmm0,0x20(%r12)
    288a:	e9 68 fc ff ff       	jmp    24f7 <_ZSt16__introsort_loopIN9__gnu_cxx17__normal_iteratorIPSt6vectorIiSaIiEES2_IS4_SaIS4_EEEElNS0_5__ops15_Iter_less_iterEEvT_SB_T0_T1_.isra.0+0x137>
	++_M_current;
    288f:	48 83 c6 04          	add    $0x4,%rsi
    2893:	48 83 c0 04          	add    $0x4,%rax
    2897:	4c 39 ce             	cmp    %r9,%rsi
    289a:	74 64                	je     2900 <_ZSt16__introsort_loopIN9__gnu_cxx17__normal_iteratorIPSt6vectorIiSaIiEES2_IS4_SaIS4_EEEElNS0_5__ops15_Iter_less_iterEEvT_SB_T0_T1_.isra.0+0x540>
	  if (__first2 == __last2)
    289c:	48 39 d0             	cmp    %rdx,%rax
    289f:	75 8f                	jne    2830 <_ZSt16__introsort_loopIN9__gnu_cxx17__normal_iteratorIPSt6vectorIiSaIiEES2_IS4_SaIS4_EEEElNS0_5__ops15_Iter_less_iterEEvT_SB_T0_T1_.isra.0+0x470>
      while (__first1 != __last1)
    28a1:	48 39 f9             	cmp    %rdi,%rcx
    28a4:	75 9d                	jne    2843 <_ZSt16__introsort_loopIN9__gnu_cxx17__normal_iteratorIPSt6vectorIiSaIiEES2_IS4_SaIS4_EEEElNS0_5__ops15_Iter_less_iterEEvT_SB_T0_T1_.isra.0+0x483>
    28a6:	4c 89 c6             	mov    %r8,%rsi
    28a9:	eb 63                	jmp    290e <_ZSt16__introsort_loopIN9__gnu_cxx17__normal_iteratorIPSt6vectorIiSaIiEES2_IS4_SaIS4_EEEElNS0_5__ops15_Iter_less_iterEEvT_SB_T0_T1_.isra.0+0x54e>
    28ab:	0f 1f 44 00 00       	nopl   0x0(%rax,%rax,1)
    28b0:	48 83 c0 04          	add    $0x4,%rax
    28b4:	48 83 c6 04          	add    $0x4,%rsi
    28b8:	48 39 f8             	cmp    %rdi,%rax
    28bb:	74 4e                	je     290b <_ZSt16__introsort_loopIN9__gnu_cxx17__normal_iteratorIPSt6vectorIiSaIiEES2_IS4_SaIS4_EEEElNS0_5__ops15_Iter_less_iterEEvT_SB_T0_T1_.isra.0+0x54b>
	  if (__first2 == __last2)
    28bd:	48 39 d6             	cmp    %rdx,%rsi
    28c0:	75 87                	jne    2849 <_ZSt16__introsort_loopIN9__gnu_cxx17__normal_iteratorIPSt6vectorIiSaIiEES2_IS4_SaIS4_EEEElNS0_5__ops15_Iter_less_iterEEvT_SB_T0_T1_.isra.0+0x489>
    28c2:	eb 93                	jmp    2857 <_ZSt16__introsort_loopIN9__gnu_cxx17__normal_iteratorIPSt6vectorIiSaIiEES2_IS4_SaIS4_EEEElNS0_5__ops15_Iter_less_iterEEvT_SB_T0_T1_.isra.0+0x497>
      : _M_current(__i) { }
    28c4:	49 8b 55 f0          	mov    -0x10(%r13),%rdx
    28c8:	4d 8b 45 e8          	mov    -0x18(%r13),%r8
      return (__first2 == __last2) <=> true; // See PR 94006
    28cc:	4c 39 c8             	cmp    %r9,%rax
    28cf:	0f 85 53 ff ff ff    	jne    2828 <_ZSt16__introsort_loopIN9__gnu_cxx17__normal_iteratorIPSt6vectorIiSaIiEES2_IS4_SaIS4_EEEElNS0_5__ops15_Iter_less_iterEEvT_SB_T0_T1_.isra.0+0x468>
    28d5:	e9 b0 fb ff ff       	jmp    248a <_ZSt16__introsort_loopIN9__gnu_cxx17__normal_iteratorIPSt6vectorIiSaIiEES2_IS4_SaIS4_EEEElNS0_5__ops15_Iter_less_iterEEvT_SB_T0_T1_.isra.0+0xca>
    28da:	48 39 d0             	cmp    %rdx,%rax
    28dd:	0f 85 74 ff ff ff    	jne    2857 <_ZSt16__introsort_loopIN9__gnu_cxx17__normal_iteratorIPSt6vectorIiSaIiEES2_IS4_SaIS4_EEEElNS0_5__ops15_Iter_less_iterEEvT_SB_T0_T1_.isra.0+0x497>
      while (__first1 != __last1)
    28e3:	4c 39 ce             	cmp    %r9,%rsi
    28e6:	0f 84 dd fe ff ff    	je     27c9 <_ZSt16__introsort_loopIN9__gnu_cxx17__normal_iteratorIPSt6vectorIiSaIiEES2_IS4_SaIS4_EEEElNS0_5__ops15_Iter_less_iterEEvT_SB_T0_T1_.isra.0+0x409>
	  if (__first2 == __last2)
    28ec:	4c 39 c2             	cmp    %r8,%rdx
    28ef:	0f 85 ba fb ff ff    	jne    24af <_ZSt16__introsort_loopIN9__gnu_cxx17__normal_iteratorIPSt6vectorIiSaIiEES2_IS4_SaIS4_EEEElNS0_5__ops15_Iter_less_iterEEvT_SB_T0_T1_.isra.0+0xef>
    28f5:	e9 db fe ff ff       	jmp    27d5 <_ZSt16__introsort_loopIN9__gnu_cxx17__normal_iteratorIPSt6vectorIiSaIiEES2_IS4_SaIS4_EEEElNS0_5__ops15_Iter_less_iterEEvT_SB_T0_T1_.isra.0+0x415>
    28fa:	66 0f 1f 44 00 00    	nopw   0x0(%rax,%rax,1)
      return (__first2 == __last2) <=> true; // See PR 94006
    2900:	48 39 d0             	cmp    %rdx,%rax
    2903:	0f 85 cc fe ff ff    	jne    27d5 <_ZSt16__introsort_loopIN9__gnu_cxx17__normal_iteratorIPSt6vectorIiSaIiEES2_IS4_SaIS4_EEEElNS0_5__ops15_Iter_less_iterEEvT_SB_T0_T1_.isra.0+0x415>
    2909:	eb 96                	jmp    28a1 <_ZSt16__introsort_loopIN9__gnu_cxx17__normal_iteratorIPSt6vectorIiSaIiEES2_IS4_SaIS4_EEEElNS0_5__ops15_Iter_less_iterEEvT_SB_T0_T1_.isra.0+0x4e1>
    290b:	48 89 d0             	mov    %rdx,%rax
    290e:	48 39 f0             	cmp    %rsi,%rax
    2911:	0f 85 ab fb ff ff    	jne    24c2 <_ZSt16__introsort_loopIN9__gnu_cxx17__normal_iteratorIPSt6vectorIiSaIiEES2_IS4_SaIS4_EEEElNS0_5__ops15_Iter_less_iterEEvT_SB_T0_T1_.isra.0+0x102>
    2917:	e9 3b ff ff ff       	jmp    2857 <_ZSt16__introsort_loopIN9__gnu_cxx17__normal_iteratorIPSt6vectorIiSaIiEES2_IS4_SaIS4_EEEElNS0_5__ops15_Iter_less_iterEEvT_SB_T0_T1_.isra.0+0x497>
    291c:	49 8b 55 f0          	mov    -0x10(%r13),%rdx
    2920:	49 8b 45 e8          	mov    -0x18(%r13),%rax
    2924:	4c 39 ce             	cmp    %r9,%rsi
    2927:	75 27                	jne    2950 <_ZSt16__introsort_loopIN9__gnu_cxx17__normal_iteratorIPSt6vectorIiSaIiEES2_IS4_SaIS4_EEEElNS0_5__ops15_Iter_less_iterEEvT_SB_T0_T1_.isra.0+0x590>
    2929:	49 89 c0             	mov    %rax,%r8
    292c:	48 39 d0             	cmp    %rdx,%rax
    292f:	0f 85 22 ff ff ff    	jne    2857 <_ZSt16__introsort_loopIN9__gnu_cxx17__normal_iteratorIPSt6vectorIiSaIiEES2_IS4_SaIS4_EEEElNS0_5__ops15_Iter_less_iterEEvT_SB_T0_T1_.isra.0+0x497>
    2935:	e9 92 fe ff ff       	jmp    27cc <_ZSt16__introsort_loopIN9__gnu_cxx17__normal_iteratorIPSt6vectorIiSaIiEES2_IS4_SaIS4_EEEElNS0_5__ops15_Iter_less_iterEEvT_SB_T0_T1_.isra.0+0x40c>
    293a:	49 8b 55 f0          	mov    -0x10(%r13),%rdx
    293e:	4d 8b 45 e8          	mov    -0x18(%r13),%r8
	  if (__first2 == __last2)
    2942:	49 39 d0             	cmp    %rdx,%r8
    2945:	0f 85 48 fb ff ff    	jne    2493 <_ZSt16__introsort_loopIN9__gnu_cxx17__normal_iteratorIPSt6vectorIiSaIiEES2_IS4_SaIS4_EEEElNS0_5__ops15_Iter_less_iterEEvT_SB_T0_T1_.isra.0+0xd3>
    294b:	e9 85 fe ff ff       	jmp    27d5 <_ZSt16__introsort_loopIN9__gnu_cxx17__normal_iteratorIPSt6vectorIiSaIiEES2_IS4_SaIS4_EEEElNS0_5__ops15_Iter_less_iterEEvT_SB_T0_T1_.isra.0+0x415>
    2950:	49 89 c0             	mov    %rax,%r8
    2953:	e9 d0 fe ff ff       	jmp    2828 <_ZSt16__introsort_loopIN9__gnu_cxx17__normal_iteratorIPSt6vectorIiSaIiEES2_IS4_SaIS4_EEEElNS0_5__ops15_Iter_less_iterEEvT_SB_T0_T1_.isra.0+0x468>
    2958:	e8 c3 e8 ff ff       	call   1220 <__stack_chk_fail@plt>
    295d:	0f 1f 00             	nopl   (%rax)

0000000000002960 <_ZN9UnionFind4findEi>:
			parent[i] = i;
		}
		this->flag = flag;
	}

	int find(int u) {
    2960:	f3 0f 1e fa          	endbr64
    2964:	41 57                	push   %r15
		if (parent[u] == u) {
    2966:	48 63 c6             	movslq %esi,%rax
	int find(int u) {
    2969:	41 56                	push   %r14
    296b:	41 55                	push   %r13
    296d:	41 54                	push   %r12
    296f:	55                   	push   %rbp
    2970:	53                   	push   %rbx
    2971:	48 83 ec 08          	sub    $0x8,%rsp
	return *(this->_M_impl._M_start + __n);
    2975:	48 8b 17             	mov    (%rdi),%rdx
    2978:	48 8d 1c 82          	lea    (%rdx,%rax,4),%rbx
		if (parent[u] == u) {
    297c:	48 63 03             	movslq (%rbx),%rax
    297f:	39 f0                	cmp    %esi,%eax
    2981:	74 61                	je     29e4 <_ZN9UnionFind4findEi+0x84>
    2983:	48 8d 2c 82          	lea    (%rdx,%rax,4),%rbp
    2987:	89 c1                	mov    %eax,%ecx
    2989:	8b 45 00             	mov    0x0(%rbp),%eax
    298c:	39 c1                	cmp    %eax,%ecx
    298e:	74 52                	je     29e2 <_ZN9UnionFind4findEi+0x82>
    2990:	48 63 c8             	movslq %eax,%rcx
    2993:	4c 8d 24 8a          	lea    (%rdx,%rcx,4),%r12
    2997:	41 8b 0c 24          	mov    (%r12),%ecx
    299b:	39 c8                	cmp    %ecx,%eax
    299d:	74 40                	je     29df <_ZN9UnionFind4findEi+0x7f>
    299f:	48 63 c1             	movslq %ecx,%rax
    29a2:	4c 8d 2c 82          	lea    (%rdx,%rax,4),%r13
    29a6:	41 8b 45 00          	mov    0x0(%r13),%eax
    29aa:	39 c1                	cmp    %eax,%ecx
    29ac:	74 2d                	je     29db <_ZN9UnionFind4findEi+0x7b>
    29ae:	48 63 c8             	movslq %eax,%rcx
    29b1:	4c 8d 34 8a          	lea    (%rdx,%rcx,4),%r14
    29b5:	41 8b 0e             	mov    (%r14),%ecx
    29b8:	39 c8                	cmp    %ecx,%eax
    29ba:	74 1b                	je     29d7 <_ZN9UnionFind4findEi+0x77>
    29bc:	48 63 c1             	movslq %ecx,%rax
    29bf:	4c 8d 3c 82          	lea    (%rdx,%rax,4),%r15
    29c3:	41 8b 07             	mov    (%r15),%eax
    29c6:	39 c1                	cmp    %eax,%ecx
    29c8:	74 0a                	je     29d4 <_ZN9UnionFind4findEi+0x74>
			return u;
		}
		parent[u] = find(parent[u]);
    29ca:	89 c6                	mov    %eax,%esi
    29cc:	e8 8f ff ff ff       	call   2960 <_ZN9UnionFind4findEi>
    29d1:	41 89 07             	mov    %eax,(%r15)
    29d4:	41 89 06             	mov    %eax,(%r14)
    29d7:	41 89 45 00          	mov    %eax,0x0(%r13)
    29db:	41 89 04 24          	mov    %eax,(%r12)
    29df:	89 45 00             	mov    %eax,0x0(%rbp)
    29e2:	89 03                	mov    %eax,(%rbx)
		return parent[u];
	}
    29e4:	48 83 c4 08          	add    $0x8,%rsp
    29e8:	5b                   	pop    %rbx
    29e9:	5d                   	pop    %rbp
    29ea:	41 5c                	pop    %r12
    29ec:	41 5d                	pop    %r13
    29ee:	41 5e                	pop    %r14
    29f0:	41 5f                	pop    %r15
    29f2:	c3                   	ret
    29f3:	66 2e 0f 1f 84 00 00 	cs nopw 0x0(%rax,%rax,1)
    29fa:	00 00 00 
    29fd:	0f 1f 00             	nopl   (%rax)

0000000000002a00 <_ZN9UnionFind5UnionEii>:

	void Union(int u, int v) {
    2a00:	f3 0f 1e fa          	endbr64
    2a04:	41 57                	push   %r15
		if (parent[u] == u) {
    2a06:	48 63 c6             	movslq %esi,%rax
	void Union(int u, int v) {
    2a09:	41 56                	push   %r14
    2a0b:	41 55                	push   %r13
    2a0d:	41 54                	push   %r12
    2a0f:	41 89 d4             	mov    %edx,%r12d
    2a12:	55                   	push   %rbp
    2a13:	53                   	push   %rbx
    2a14:	48 83 ec 48          	sub    $0x48,%rsp
    2a18:	48 8b 2f             	mov    (%rdi),%rbp
    2a1b:	4c 8d 6c 85 00       	lea    0x0(%rbp,%rax,4),%r13
		if (parent[u] == u) {
    2a20:	41 8b 5d 00          	mov    0x0(%r13),%ebx
    2a24:	39 de                	cmp    %ebx,%esi
    2a26:	0f 84 11 01 00 00    	je     2b3d <_ZN9UnionFind5UnionEii+0x13d>
    2a2c:	48 63 c3             	movslq %ebx,%rax
    2a2f:	4c 8d 74 85 00       	lea    0x0(%rbp,%rax,4),%r14
    2a34:	41 8b 06             	mov    (%r14),%eax
    2a37:	39 c3                	cmp    %eax,%ebx
    2a39:	0f 84 fa 00 00 00    	je     2b39 <_ZN9UnionFind5UnionEii+0x139>
    2a3f:	48 63 d0             	movslq %eax,%rdx
    2a42:	4c 8d 7c 95 00       	lea    0x0(%rbp,%rdx,4),%r15
    2a47:	41 8b 1f             	mov    (%r15),%ebx
    2a4a:	39 d8                	cmp    %ebx,%eax
    2a4c:	0f 84 e4 00 00 00    	je     2b36 <_ZN9UnionFind5UnionEii+0x136>
    2a52:	48 63 c3             	movslq %ebx,%rax
    2a55:	48 8d 54 85 00       	lea    0x0(%rbp,%rax,4),%rdx
    2a5a:	8b 02                	mov    (%rdx),%eax
    2a5c:	39 c3                	cmp    %eax,%ebx
    2a5e:	0f 84 cf 00 00 00    	je     2b33 <_ZN9UnionFind5UnionEii+0x133>
    2a64:	48 63 c8             	movslq %eax,%rcx
    2a67:	48 8d 4c 8d 00       	lea    0x0(%rbp,%rcx,4),%rcx
    2a6c:	8b 19                	mov    (%rcx),%ebx
    2a6e:	39 d8                	cmp    %ebx,%eax
    2a70:	0f 84 bb 00 00 00    	je     2b31 <_ZN9UnionFind5UnionEii+0x131>
    2a76:	48 63 c3             	movslq %ebx,%rax
    2a79:	4c 8d 44 85 00       	lea    0x0(%rbp,%rax,4),%r8
    2a7e:	41 8b 00             	mov    (%r8),%eax
    2a81:	39 c3                	cmp    %eax,%ebx
    2a83:	0f 84 a6 00 00 00    	je     2b2f <_ZN9UnionFind5UnionEii+0x12f>
    2a89:	48 63 f0             	movslq %eax,%rsi
    2a8c:	4c 8d 4c b5 00       	lea    0x0(%rbp,%rsi,4),%r9
    2a91:	41 8b 19             	mov    (%r9),%ebx
    2a94:	39 d8                	cmp    %ebx,%eax
    2a96:	0f 84 90 00 00 00    	je     2b2c <_ZN9UnionFind5UnionEii+0x12c>
    2a9c:	48 63 c3             	movslq %ebx,%rax
    2a9f:	4c 8d 54 85 00       	lea    0x0(%rbp,%rax,4),%r10
    2aa4:	41 8b 02             	mov    (%r10),%eax
    2aa7:	39 c3                	cmp    %eax,%ebx
    2aa9:	74 7e                	je     2b29 <_ZN9UnionFind5UnionEii+0x129>
    2aab:	48 63 f0             	movslq %eax,%rsi
    2aae:	4c 8d 5c b5 00       	lea    0x0(%rbp,%rsi,4),%r11
    2ab3:	41 8b 1b             	mov    (%r11),%ebx
    2ab6:	39 d8                	cmp    %ebx,%eax
    2ab8:	74 6c                	je     2b26 <_ZN9UnionFind5UnionEii+0x126>
    2aba:	48 63 c3             	movslq %ebx,%rax
    2abd:	48 8d 44 85 00       	lea    0x0(%rbp,%rax,4),%rax
    2ac2:	8b 30                	mov    (%rax),%esi
    2ac4:	48 89 04 24          	mov    %rax,(%rsp)
    2ac8:	39 f3                	cmp    %esi,%ebx
    2aca:	0f 84 f7 01 00 00    	je     2cc7 <_ZN9UnionFind5UnionEii+0x2c7>
    2ad0:	4c 89 5c 24 38       	mov    %r11,0x38(%rsp)
    2ad5:	4c 89 54 24 30       	mov    %r10,0x30(%rsp)
    2ada:	4c 89 4c 24 28       	mov    %r9,0x28(%rsp)
    2adf:	4c 89 44 24 20       	mov    %r8,0x20(%rsp)
    2ae4:	48 89 4c 24 18       	mov    %rcx,0x18(%rsp)
    2ae9:	48 89 54 24 10       	mov    %rdx,0x10(%rsp)
		parent[u] = find(parent[u]);
    2aee:	48 89 7c 24 08       	mov    %rdi,0x8(%rsp)
    2af3:	e8 68 fe ff ff       	call   2960 <_ZN9UnionFind4findEi>
		return parent[u];
    2af8:	48 8b 7c 24 08       	mov    0x8(%rsp),%rdi
    2afd:	48 8b 54 24 10       	mov    0x10(%rsp),%rdx
		parent[u] = find(parent[u]);
    2b02:	89 c3                	mov    %eax,%ebx
    2b04:	48 8b 04 24          	mov    (%rsp),%rax
		return parent[u];
    2b08:	48 8b 4c 24 18       	mov    0x18(%rsp),%rcx
    2b0d:	4c 8b 44 24 20       	mov    0x20(%rsp),%r8
    2b12:	4c 8b 4c 24 28       	mov    0x28(%rsp),%r9
    2b17:	4c 8b 54 24 30       	mov    0x30(%rsp),%r10
    2b1c:	4c 8b 5c 24 38       	mov    0x38(%rsp),%r11
		parent[u] = find(parent[u]);
    2b21:	89 18                	mov    %ebx,(%rax)
    2b23:	41 89 1b             	mov    %ebx,(%r11)
    2b26:	41 89 1a             	mov    %ebx,(%r10)
    2b29:	41 89 19             	mov    %ebx,(%r9)
    2b2c:	41 89 18             	mov    %ebx,(%r8)
    2b2f:	89 19                	mov    %ebx,(%rcx)
    2b31:	89 1a                	mov    %ebx,(%rdx)
    2b33:	41 89 1f             	mov    %ebx,(%r15)
    2b36:	41 89 1e             	mov    %ebx,(%r14)
    2b39:	41 89 5d 00          	mov    %ebx,0x0(%r13)
		if (parent[u] == u) {
    2b3d:	49 63 c4             	movslq %r12d,%rax
    2b40:	4c 8d 6c 85 00       	lea    0x0(%rbp,%rax,4),%r13
    2b45:	41 8b 45 00          	mov    0x0(%r13),%eax
    2b49:	41 39 c4             	cmp    %eax,%r12d
    2b4c:	0f 84 09 01 00 00    	je     2c5b <_ZN9UnionFind5UnionEii+0x25b>
    2b52:	48 63 d0             	movslq %eax,%rdx
    2b55:	4c 8d 64 95 00       	lea    0x0(%rbp,%rdx,4),%r12
    2b5a:	41 8b 14 24          	mov    (%r12),%edx
    2b5e:	39 d0                	cmp    %edx,%eax
    2b60:	0f 84 f1 00 00 00    	je     2c57 <_ZN9UnionFind5UnionEii+0x257>
    2b66:	48 63 c2             	movslq %edx,%rax
    2b69:	4c 8d 74 85 00       	lea    0x0(%rbp,%rax,4),%r14
    2b6e:	41 8b 06             	mov    (%r14),%eax
    2b71:	39 c2                	cmp    %eax,%edx
    2b73:	0f 84 da 00 00 00    	je     2c53 <_ZN9UnionFind5UnionEii+0x253>
    2b79:	48 63 d0             	movslq %eax,%rdx
    2b7c:	4c 8d 7c 95 00       	lea    0x0(%rbp,%rdx,4),%r15
    2b81:	41 8b 0f             	mov    (%r15),%ecx
    2b84:	39 c8                	cmp    %ecx,%eax
    2b86:	0f 84 c4 00 00 00    	je     2c50 <_ZN9UnionFind5UnionEii+0x250>
    2b8c:	48 63 c1             	movslq %ecx,%rax
    2b8f:	48 8d 54 85 00       	lea    0x0(%rbp,%rax,4),%rdx
    2b94:	8b 02                	mov    (%rdx),%eax
    2b96:	39 c1                	cmp    %eax,%ecx
    2b98:	0f 84 af 00 00 00    	je     2c4d <_ZN9UnionFind5UnionEii+0x24d>
    2b9e:	48 63 c8             	movslq %eax,%rcx
    2ba1:	48 8d 4c 8d 00       	lea    0x0(%rbp,%rcx,4),%rcx
    2ba6:	8b 31                	mov    (%rcx),%esi
    2ba8:	39 f0                	cmp    %esi,%eax
    2baa:	0f 84 9b 00 00 00    	je     2c4b <_ZN9UnionFind5UnionEii+0x24b>
    2bb0:	48 63 c6             	movslq %esi,%rax
    2bb3:	4c 8d 44 85 00       	lea    0x0(%rbp,%rax,4),%r8
    2bb8:	41 8b 00             	mov    (%r8),%eax
    2bbb:	39 c6                	cmp    %eax,%esi
    2bbd:	0f 84 86 00 00 00    	je     2c49 <_ZN9UnionFind5UnionEii+0x249>
    2bc3:	48 63 f0             	movslq %eax,%rsi
    2bc6:	4c 8d 4c b5 00       	lea    0x0(%rbp,%rsi,4),%r9
    2bcb:	41 8b 31             	mov    (%r9),%esi
    2bce:	39 f0                	cmp    %esi,%eax
    2bd0:	74 74                	je     2c46 <_ZN9UnionFind5UnionEii+0x246>
    2bd2:	48 63 c6             	movslq %esi,%rax
    2bd5:	4c 8d 54 85 00       	lea    0x0(%rbp,%rax,4),%r10
    2bda:	41 8b 02             	mov    (%r10),%eax
    2bdd:	39 c6                	cmp    %eax,%esi
    2bdf:	74 62                	je     2c43 <_ZN9UnionFind5UnionEii+0x243>
    2be1:	48 63 f0             	movslq %eax,%rsi
    2be4:	4c 8d 5c b5 00       	lea    0x0(%rbp,%rsi,4),%r11
    2be9:	41 8b 33             	mov    (%r11),%esi
    2bec:	4c 89 1c 24          	mov    %r11,(%rsp)
    2bf0:	39 f0                	cmp    %esi,%eax
    2bf2:	0f 84 c8 00 00 00    	je     2cc0 <_ZN9UnionFind5UnionEii+0x2c0>
    2bf8:	4c 89 54 24 30       	mov    %r10,0x30(%rsp)
    2bfd:	4c 89 4c 24 28       	mov    %r9,0x28(%rsp)
    2c02:	4c 89 44 24 20       	mov    %r8,0x20(%rsp)
    2c07:	48 89 4c 24 18       	mov    %rcx,0x18(%rsp)
    2c0c:	48 89 54 24 10       	mov    %rdx,0x10(%rsp)
		parent[u] = find(parent[u]);
    2c11:	48 89 7c 24 08       	mov    %rdi,0x8(%rsp)
    2c16:	e8 45 fd ff ff       	call   2960 <_ZN9UnionFind4findEi>
    2c1b:	4c 8b 1c 24          	mov    (%rsp),%r11
		return parent[u];
    2c1f:	48 8b 7c 24 08       	mov    0x8(%rsp),%rdi
    2c24:	48 8b 54 24 10       	mov    0x10(%rsp),%rdx
    2c29:	48 8b 4c 24 18       	mov    0x18(%rsp),%rcx
    2c2e:	4c 8b 44 24 20       	mov    0x20(%rsp),%r8
    2c33:	4c 8b 4c 24 28       	mov    0x28(%rsp),%r9
		parent[u] = find(parent[u]);
    2c38:	41 89 03             	mov    %eax,(%r11)
		return parent[u];
    2c3b:	4c 8b 54 24 30       	mov    0x30(%rsp),%r10
		parent[u] = find(parent[u]);
    2c40:	41 89 02             	mov    %eax,(%r10)
    2c43:	41 89 01             	mov    %eax,(%r9)
    2c46:	41 89 00             	mov    %eax,(%r8)
    2c49:	89 01                	mov    %eax,(%rcx)
    2c4b:	89 02                	mov    %eax,(%rdx)
    2c4d:	41 89 07             	mov    %eax,(%r15)
    2c50:	41 89 06             	mov    %eax,(%r14)
    2c53:	41 89 04 24          	mov    %eax,(%r12)
    2c57:	41 89 45 00          	mov    %eax,0x0(%r13)
		int set_u = find(u);
		int set_v = find(v);

		if (set_u == set_v) {
    2c5b:	39 d8                	cmp    %ebx,%eax
    2c5d:	74 35                	je     2c94 <_ZN9UnionFind5UnionEii+0x294>
    2c5f:	48 8b 57 18          	mov    0x18(%rdi),%rdx
			return;
		}

		if (this->flag) {
			parent[set_u] = set_v;
			rank[set_v]++;
    2c63:	48 63 c8             	movslq %eax,%rcx
			parent[set_u] = set_v;
    2c66:	4c 63 c3             	movslq %ebx,%r8
    2c69:	48 c1 e1 02          	shl    $0x2,%rcx
		if (this->flag) {
    2c6d:	80 7f 30 00          	cmpb   $0x0,0x30(%rdi)
    2c71:	4e 8d 0c 85 00 00 00 	lea    0x0(,%r8,4),%r9
    2c78:	00 
    2c79:	48 8d 34 0a          	lea    (%rdx,%rcx,1),%rsi
    2c7d:	75 0d                	jne    2c8c <_ZN9UnionFind5UnionEii+0x28c>
    2c7f:	4c 01 ca             	add    %r9,%rdx
			return;
		}

		if (rank[set_u] < rank[set_v]) {
    2c82:	8b 3e                	mov    (%rsi),%edi
    2c84:	44 8b 0a             	mov    (%rdx),%r9d
    2c87:	41 39 f9             	cmp    %edi,%r9d
    2c8a:	7d 1c                	jge    2ca8 <_ZN9UnionFind5UnionEii+0x2a8>
			parent[set_u] = set_v;
    2c8c:	42 89 44 85 00       	mov    %eax,0x0(%rbp,%r8,4)
			rank[set_v]++;
    2c91:	83 06 01             	addl   $0x1,(%rsi)
			rank[set_u]++;
		} else {
			parent[set_v] = set_u;
			rank[set_u]++;
		}
	}
    2c94:	48 83 c4 48          	add    $0x48,%rsp
    2c98:	5b                   	pop    %rbx
    2c99:	5d                   	pop    %rbp
    2c9a:	41 5c                	pop    %r12
    2c9c:	41 5d                	pop    %r13
    2c9e:	41 5e                	pop    %r14
    2ca0:	41 5f                	pop    %r15
    2ca2:	c3                   	ret
    2ca3:	0f 1f 44 00 00       	nopl   0x0(%rax,%rax,1)
    2ca8:	48 01 cd             	add    %rcx,%rbp
			parent[set_v] = set_u;
    2cab:	89 5d 00             	mov    %ebx,0x0(%rbp)
			rank[set_u]++;
    2cae:	83 02 01             	addl   $0x1,(%rdx)
	}
    2cb1:	48 83 c4 48          	add    $0x48,%rsp
    2cb5:	5b                   	pop    %rbx
    2cb6:	5d                   	pop    %rbp
    2cb7:	41 5c                	pop    %r12
    2cb9:	41 5d                	pop    %r13
    2cbb:	41 5e                	pop    %r14
    2cbd:	41 5f                	pop    %r15
    2cbf:	c3                   	ret
			return u;
    2cc0:	89 f0                	mov    %esi,%eax
    2cc2:	e9 79 ff ff ff       	jmp    2c40 <_ZN9UnionFind5UnionEii+0x240>
    2cc7:	89 f3                	mov    %esi,%ebx
    2cc9:	e9 55 fe ff ff       	jmp    2b23 <_ZN9UnionFind5UnionEii+0x123>
    2cce:	66 90                	xchg   %ax,%ax

0000000000002cd0 <_ZN9MST_Graph6dfsrecEiRiRSt6vectorIiSaIiEES4_S4_S4_>:
                    break;
            }
        }
    }

    void dfsrec(int v, int &time, vector<int> &visited, vector<int> &p, vector<int> &in, vector<int> &out) {
    2cd0:	f3 0f 1e fa          	endbr64
    2cd4:	41 57                	push   %r15
    2cd6:	41 56                	push   %r14
    2cd8:	41 55                	push   %r13
    2cda:	41 54                	push   %r12
    2cdc:	55                   	push   %rbp
    2cdd:	48 63 ee             	movslq %esi,%rbp
    2ce0:	4c 89 ce             	mov    %r9,%rsi
    2ce3:	53                   	push   %rbx
    2ce4:	48 89 fb             	mov    %rdi,%rbx
    2ce7:	48 81 ec 28 01 00 00 	sub    $0x128,%rsp
    2cee:	4c 8b 19             	mov    (%rcx),%r11
    2cf1:	48 8b 36             	mov    (%rsi),%rsi
    2cf4:	48 89 bc 24 e8 00 00 	mov    %rdi,0xe8(%rsp)
    2cfb:	00 
    2cfc:	48 89 d7             	mov    %rdx,%rdi
        visited[v] = 1;
    2cff:	41 c7 04 ab 01 00 00 	movl   $0x1,(%r11,%rbp,4)
    2d06:	00 
        in[v] = time++;
    2d07:	8b 02                	mov    (%rdx),%eax
    2d09:	48 89 34 24          	mov    %rsi,(%rsp)
    2d0d:	8d 50 01             	lea    0x1(%rax),%edx
    void dfsrec(int v, int &time, vector<int> &visited, vector<int> &p, vector<int> &in, vector<int> &out) {
    2d10:	4c 89 8c 24 f8 00 00 	mov    %r9,0xf8(%rsp)
    2d17:	00 
    2d18:	4c 8b 8c 24 60 01 00 	mov    0x160(%rsp),%r9
    2d1f:	00 
        in[v] = time++;
    2d20:	89 17                	mov    %edx,(%rdi)
    2d22:	89 04 ae             	mov    %eax,(%rsi,%rbp,4)
    2d25:	48 8b 43 08          	mov    0x8(%rbx),%rax
    void dfsrec(int v, int &time, vector<int> &visited, vector<int> &p, vector<int> &in, vector<int> &out) {
    2d29:	48 89 8c 24 f0 00 00 	mov    %rcx,0xf0(%rsp)
    2d30:	00 
    2d31:	48 89 c6             	mov    %rax,%rsi
    2d34:	48 89 44 24 48       	mov    %rax,0x48(%rsp)
    2d39:	48 8d 44 6d 00       	lea    0x0(%rbp,%rbp,2),%rax
    2d3e:	48 8d 04 c6          	lea    (%rsi,%rax,8),%rax
    2d42:	4c 89 84 24 c0 00 00 	mov    %r8,0xc0(%rsp)
    2d49:	00 
    2d4a:	48 8b 10             	mov    (%rax),%rdx
    2d4d:	4c 8b 70 08          	mov    0x8(%rax),%r14
        for (auto edge : tree_edges[v]) {
    2d51:	4c 39 f2             	cmp    %r14,%rdx
    2d54:	0f 84 96 05 00 00    	je     32f0 <_ZN9MST_Graph6dfsrecEiRiRSt6vectorIiSaIiEES4_S4_S4_+0x620>
    2d5a:	48 89 ac 24 18 01 00 	mov    %rbp,0x118(%rsp)
    2d61:	00 
    2d62:	49 89 d5             	mov    %rdx,%r13
    2d65:	89 ac 24 e4 00 00 00 	mov    %ebp,0xe4(%rsp)
    2d6c:	49 63 6d 00          	movslq 0x0(%r13),%rbp
    2d70:	49 8d 14 ab          	lea    (%r11,%rbp,4),%rdx
            if (visited[edge]) {
    2d74:	8b 0a                	mov    (%rdx),%ecx
    2d76:	85 c9                	test   %ecx,%ecx
    2d78:	0f 85 5d 05 00 00    	jne    32db <_ZN9MST_Graph6dfsrecEiRiRSt6vectorIiSaIiEES4_S4_S4_+0x60b>
    2d7e:	48 8b 84 24 c0 00 00 	mov    0xc0(%rsp),%rax
    2d85:	00 
    2d86:	4c 8b 00             	mov    (%rax),%r8
                continue;
            }
            p[edge] = v;
    2d89:	8b 84 24 e4 00 00 00 	mov    0xe4(%rsp),%eax
    2d90:	41 89 04 a8          	mov    %eax,(%r8,%rbp,4)
        in[v] = time++;
    2d94:	48 8b 04 24          	mov    (%rsp),%rax
        visited[v] = 1;
    2d98:	c7 02 01 00 00 00    	movl   $0x1,(%rdx)
        in[v] = time++;
    2d9e:	8b 17                	mov    (%rdi),%edx
    2da0:	8d 4a 01             	lea    0x1(%rdx),%ecx
    2da3:	89 0f                	mov    %ecx,(%rdi)
    2da5:	89 14 a8             	mov    %edx,(%rax,%rbp,4)
    2da8:	48 8b 44 24 48       	mov    0x48(%rsp),%rax
    2dad:	48 8d 54 6d 00       	lea    0x0(%rbp,%rbp,2),%rdx
    2db2:	48 8d 0c d0          	lea    (%rax,%rdx,8),%rcx
    2db6:	48 8b 11             	mov    (%rcx),%rdx
    2db9:	4c 8b 51 08          	mov    0x8(%rcx),%r10
        for (auto edge : tree_edges[v]) {
    2dbd:	4c 39 d2             	cmp    %r10,%rdx
    2dc0:	0f 84 08 05 00 00    	je     32ce <_ZN9MST_Graph6dfsrecEiRiRSt6vectorIiSaIiEES4_S4_S4_+0x5fe>
    2dc6:	48 89 ac 24 c8 00 00 	mov    %rbp,0xc8(%rsp)
    2dcd:	00 
    2dce:	49 89 d4             	mov    %rdx,%r12
    2dd1:	4d 89 d7             	mov    %r10,%r15
    2dd4:	4c 89 b4 24 d0 00 00 	mov    %r14,0xd0(%rsp)
    2ddb:	00 
    2ddc:	89 ac 24 e0 00 00 00 	mov    %ebp,0xe0(%rsp)
    2de3:	4c 89 ac 24 d8 00 00 	mov    %r13,0xd8(%rsp)
    2dea:	00 
    2deb:	49 63 1c 24          	movslq (%r12),%rbx
    2def:	49 8d 04 9b          	lea    (%r11,%rbx,4),%rax
            if (visited[edge]) {
    2df3:	8b 10                	mov    (%rax),%edx
    2df5:	85 d2                	test   %edx,%edx
    2df7:	0f 85 ac 04 00 00    	jne    32a9 <_ZN9MST_Graph6dfsrecEiRiRSt6vectorIiSaIiEES4_S4_S4_+0x5d9>
            p[edge] = v;
    2dfd:	8b b4 24 e0 00 00 00 	mov    0xe0(%rsp),%esi
    2e04:	41 89 34 98          	mov    %esi,(%r8,%rbx,4)
        in[v] = time++;
    2e08:	48 8b 34 24          	mov    (%rsp),%rsi
        visited[v] = 1;
    2e0c:	c7 00 01 00 00 00    	movl   $0x1,(%rax)
        in[v] = time++;
    2e12:	8b 07                	mov    (%rdi),%eax
    2e14:	8d 50 01             	lea    0x1(%rax),%edx
    2e17:	89 17                	mov    %edx,(%rdi)
    2e19:	89 04 9e             	mov    %eax,(%rsi,%rbx,4)
    2e1c:	48 8b 74 24 48       	mov    0x48(%rsp),%rsi
    2e21:	48 8d 04 5b          	lea    (%rbx,%rbx,2),%rax
    2e25:	48 8d 04 c6          	lea    (%rsi,%rax,8),%rax
    2e29:	48 8b 10             	mov    (%rax),%rdx
    2e2c:	48 8b 40 08          	mov    0x8(%rax),%rax
        for (auto edge : tree_edges[v]) {
    2e30:	48 39 c2             	cmp    %rax,%rdx
    2e33:	0f 84 63 04 00 00    	je     329c <_ZN9MST_Graph6dfsrecEiRiRSt6vectorIiSaIiEES4_S4_S4_+0x5cc>
    2e39:	4c 89 bc 24 a8 00 00 	mov    %r15,0xa8(%rsp)
    2e40:	00 
    2e41:	49 89 d5             	mov    %rdx,%r13
    2e44:	49 89 c6             	mov    %rax,%r14
    2e47:	89 9c 24 a4 00 00 00 	mov    %ebx,0xa4(%rsp)
    2e4e:	48 89 9c 24 b0 00 00 	mov    %rbx,0xb0(%rsp)
    2e55:	00 
    2e56:	4c 89 a4 24 b8 00 00 	mov    %r12,0xb8(%rsp)
    2e5d:	00 
    2e5e:	4d 63 65 00          	movslq 0x0(%r13),%r12
    2e62:	4b 8d 14 a3          	lea    (%r11,%r12,4),%rdx
            if (visited[edge]) {
    2e66:	8b 02                	mov    (%rdx),%eax
    2e68:	85 c0                	test   %eax,%eax
    2e6a:	0f 85 07 04 00 00    	jne    3277 <_ZN9MST_Graph6dfsrecEiRiRSt6vectorIiSaIiEES4_S4_S4_+0x5a7>
            p[edge] = v;
    2e70:	8b 84 24 a4 00 00 00 	mov    0xa4(%rsp),%eax
    2e77:	43 89 04 a0          	mov    %eax,(%r8,%r12,4)
        in[v] = time++;
    2e7b:	48 8b 04 24          	mov    (%rsp),%rax
        visited[v] = 1;
    2e7f:	c7 02 01 00 00 00    	movl   $0x1,(%rdx)
        in[v] = time++;
    2e85:	8b 17                	mov    (%rdi),%edx
    2e87:	8d 4a 01             	lea    0x1(%rdx),%ecx
    2e8a:	89 0f                	mov    %ecx,(%rdi)
    2e8c:	42 89 14 a0          	mov    %edx,(%rax,%r12,4)
    2e90:	48 8b 44 24 48       	mov    0x48(%rsp),%rax
    2e95:	4b 8d 14 64          	lea    (%r12,%r12,2),%rdx
    2e99:	48 8d 0c d0          	lea    (%rax,%rdx,8),%rcx
    2e9d:	48 8b 11             	mov    (%rcx),%rdx
    2ea0:	4c 8b 51 08          	mov    0x8(%rcx),%r10
        for (auto edge : tree_edges[v]) {
    2ea4:	4c 39 d2             	cmp    %r10,%rdx
    2ea7:	0f 84 bc 03 00 00    	je     3269 <_ZN9MST_Graph6dfsrecEiRiRSt6vectorIiSaIiEES4_S4_S4_+0x599>
    2ead:	4c 89 b4 24 88 00 00 	mov    %r14,0x88(%rsp)
    2eb4:	00 
    2eb5:	44 89 a4 24 a0 00 00 	mov    %r12d,0xa0(%rsp)
    2ebc:	00 
    2ebd:	4c 89 a4 24 90 00 00 	mov    %r12,0x90(%rsp)
    2ec4:	00 
    2ec5:	4d 89 d4             	mov    %r10,%r12
    2ec8:	4c 89 ac 24 98 00 00 	mov    %r13,0x98(%rsp)
    2ecf:	00 
    2ed0:	49 89 d5             	mov    %rdx,%r13
    2ed3:	49 63 6d 00          	movslq 0x0(%r13),%rbp
    2ed7:	49 8d 14 ab          	lea    (%r11,%rbp,4),%rdx
            if (visited[edge]) {
    2edb:	8b 02                	mov    (%rdx),%eax
    2edd:	85 c0                	test   %eax,%eax
    2edf:	0f 85 5f 03 00 00    	jne    3244 <_ZN9MST_Graph6dfsrecEiRiRSt6vectorIiSaIiEES4_S4_S4_+0x574>
            p[edge] = v;
    2ee5:	8b 84 24 a0 00 00 00 	mov    0xa0(%rsp),%eax
    2eec:	41 89 04 a8          	mov    %eax,(%r8,%rbp,4)
        in[v] = time++;
    2ef0:	48 8b 04 24          	mov    (%rsp),%rax
        visited[v] = 1;
    2ef4:	c7 02 01 00 00 00    	movl   $0x1,(%rdx)
        in[v] = time++;
    2efa:	8b 17                	mov    (%rdi),%edx
    2efc:	8d 4a 01             	lea    0x1(%rdx),%ecx
    2eff:	89 0f                	mov    %ecx,(%rdi)
    2f01:	89 14 a8             	mov    %edx,(%rax,%rbp,4)
    2f04:	48 8b 44 24 48       	mov    0x48(%rsp),%rax
    2f09:	48 8d 54 6d 00       	lea    0x0(%rbp,%rbp,2),%rdx
    2f0e:	48 8d 0c d0          	lea    (%rax,%rdx,8),%rcx
    2f12:	48 8b 11             	mov    (%rcx),%rdx
    2f15:	4c 8b 79 08          	mov    0x8(%rcx),%r15
        for (auto edge : tree_edges[v]) {
    2f19:	4c 39 fa             	cmp    %r15,%rdx
    2f1c:	0f 84 15 03 00 00    	je     3237 <_ZN9MST_Graph6dfsrecEiRiRSt6vectorIiSaIiEES4_S4_S4_+0x567>
    2f22:	4c 89 64 24 70       	mov    %r12,0x70(%rsp)
    2f27:	4d 89 fe             	mov    %r15,%r14
    2f2a:	89 6c 24 6c          	mov    %ebp,0x6c(%rsp)
    2f2e:	48 89 6c 24 78       	mov    %rbp,0x78(%rsp)
    2f33:	48 89 d5             	mov    %rdx,%rbp
    2f36:	4c 89 ac 24 80 00 00 	mov    %r13,0x80(%rsp)
    2f3d:	00 
    2f3e:	49 89 fd             	mov    %rdi,%r13
    2f41:	48 63 5d 00          	movslq 0x0(%rbp),%rbx
    2f45:	49 8d 04 9b          	lea    (%r11,%rbx,4),%rax
            if (visited[edge]) {
    2f49:	44 8b 38             	mov    (%rax),%r15d
    2f4c:	45 85 ff             	test   %r15d,%r15d
    2f4f:	0f 85 c0 02 00 00    	jne    3215 <_ZN9MST_Graph6dfsrecEiRiRSt6vectorIiSaIiEES4_S4_S4_+0x545>
            p[edge] = v;
    2f55:	8b 7c 24 6c          	mov    0x6c(%rsp),%edi
    2f59:	41 89 3c 98          	mov    %edi,(%r8,%rbx,4)
        in[v] = time++;
    2f5d:	48 8b 3c 24          	mov    (%rsp),%rdi
        visited[v] = 1;
    2f61:	c7 00 01 00 00 00    	movl   $0x1,(%rax)
        in[v] = time++;
    2f67:	41 8b 45 00          	mov    0x0(%r13),%eax
    2f6b:	8d 48 01             	lea    0x1(%rax),%ecx
    2f6e:	41 89 4d 00          	mov    %ecx,0x0(%r13)
    2f72:	89 04 9f             	mov    %eax,(%rdi,%rbx,4)
    2f75:	48 8b 7c 24 48       	mov    0x48(%rsp),%rdi
    2f7a:	48 8d 04 5b          	lea    (%rbx,%rbx,2),%rax
    2f7e:	48 8d 0c c7          	lea    (%rdi,%rax,8),%rcx
    2f82:	48 8b 01             	mov    (%rcx),%rax
    2f85:	4c 8b 79 08          	mov    0x8(%rcx),%r15
        for (auto edge : tree_edges[v]) {
    2f89:	4c 39 f8             	cmp    %r15,%rax
    2f8c:	0f 84 72 02 00 00    	je     3204 <_ZN9MST_Graph6dfsrecEiRiRSt6vectorIiSaIiEES4_S4_S4_+0x534>
    2f92:	4c 89 74 24 50       	mov    %r14,0x50(%rsp)
    2f97:	89 5c 24 68          	mov    %ebx,0x68(%rsp)
    2f9b:	48 89 5c 24 58       	mov    %rbx,0x58(%rsp)
    2fa0:	48 89 6c 24 60       	mov    %rbp,0x60(%rsp)
    2fa5:	4c 89 fd             	mov    %r15,%rbp
    2fa8:	4c 63 20             	movslq (%rax),%r12
    2fab:	4b 8d 14 a3          	lea    (%r11,%r12,4),%rdx
            if (visited[edge]) {
    2faf:	44 8b 32             	mov    (%rdx),%r14d
    2fb2:	45 85 f6             	test   %r14d,%r14d
    2fb5:	0f 85 2d 02 00 00    	jne    31e8 <_ZN9MST_Graph6dfsrecEiRiRSt6vectorIiSaIiEES4_S4_S4_+0x518>
            p[edge] = v;
    2fbb:	8b 74 24 68          	mov    0x68(%rsp),%esi
    2fbf:	43 89 34 a0          	mov    %esi,(%r8,%r12,4)
        in[v] = time++;
    2fc3:	48 8b 34 24          	mov    (%rsp),%rsi
        visited[v] = 1;
    2fc7:	c7 02 01 00 00 00    	movl   $0x1,(%rdx)
        in[v] = time++;
    2fcd:	41 8b 55 00          	mov    0x0(%r13),%edx
    2fd1:	8d 4a 01             	lea    0x1(%rdx),%ecx
    2fd4:	41 89 4d 00          	mov    %ecx,0x0(%r13)
    2fd8:	42 89 14 a6          	mov    %edx,(%rsi,%r12,4)
    2fdc:	4b 8d 14 64          	lea    (%r12,%r12,2),%rdx
    2fe0:	48 8d 14 d7          	lea    (%rdi,%rdx,8),%rdx
    2fe4:	4c 8b 32             	mov    (%rdx),%r14
    2fe7:	48 8b 5a 08          	mov    0x8(%rdx),%rbx
        for (auto edge : tree_edges[v]) {
    2feb:	49 39 de             	cmp    %rbx,%r14
    2fee:	0f 84 e2 01 00 00    	je     31d6 <_ZN9MST_Graph6dfsrecEiRiRSt6vectorIiSaIiEES4_S4_S4_+0x506>
    2ff4:	48 89 6c 24 30       	mov    %rbp,0x30(%rsp)
    2ff9:	49 89 da             	mov    %rbx,%r10
    2ffc:	44 89 64 24 28       	mov    %r12d,0x28(%rsp)
    3001:	4c 89 64 24 38       	mov    %r12,0x38(%rsp)
    3006:	48 89 44 24 40       	mov    %rax,0x40(%rsp)
    300b:	4d 63 3e             	movslq (%r14),%r15
    300e:	4b 8d 14 bb          	lea    (%r11,%r15,4),%rdx
            if (visited[edge]) {
    3012:	8b 1a                	mov    (%rdx),%ebx
    3014:	85 db                	test   %ebx,%ebx
    3016:	0f 85 9e 01 00 00    	jne    31ba <_ZN9MST_Graph6dfsrecEiRiRSt6vectorIiSaIiEES4_S4_S4_+0x4ea>
            p[edge] = v;
    301c:	8b 74 24 28          	mov    0x28(%rsp),%esi
    3020:	43 89 34 b8          	mov    %esi,(%r8,%r15,4)
        in[v] = time++;
    3024:	48 8b 34 24          	mov    (%rsp),%rsi
        visited[v] = 1;
    3028:	c7 02 01 00 00 00    	movl   $0x1,(%rdx)
        in[v] = time++;
    302e:	41 8b 55 00          	mov    0x0(%r13),%edx
    3032:	8d 4a 01             	lea    0x1(%rdx),%ecx
    3035:	41 89 4d 00          	mov    %ecx,0x0(%r13)
    3039:	42 89 14 be          	mov    %edx,(%rsi,%r15,4)
    303d:	4b 8d 14 7f          	lea    (%r15,%r15,2),%rdx
    3041:	48 8d 14 d7          	lea    (%rdi,%rdx,8),%rdx
    3045:	48 8b 2a             	mov    (%rdx),%rbp
    3048:	48 8b 52 08          	mov    0x8(%rdx),%rdx
        for (auto edge : tree_edges[v]) {
    304c:	48 39 d5             	cmp    %rdx,%rbp
    304f:	0f 84 53 01 00 00    	je     31a8 <_ZN9MST_Graph6dfsrecEiRiRSt6vectorIiSaIiEES4_S4_S4_+0x4d8>
    3055:	4c 89 54 24 10       	mov    %r10,0x10(%rsp)
    305a:	4c 89 c0             	mov    %r8,%rax
    305d:	44 89 7c 24 0c       	mov    %r15d,0xc(%rsp)
    3062:	4c 89 7c 24 18       	mov    %r15,0x18(%rsp)
    3067:	4c 89 74 24 20       	mov    %r14,0x20(%rsp)
    306c:	49 89 fe             	mov    %rdi,%r14
    306f:	4c 63 65 00          	movslq 0x0(%rbp),%r12
    3073:	4b 8d 0c a3          	lea    (%r11,%r12,4),%rcx
            if (visited[edge]) {
    3077:	44 8b 01             	mov    (%rcx),%r8d
    307a:	45 85 c0             	test   %r8d,%r8d
    307d:	0f 85 03 01 00 00    	jne    3186 <_ZN9MST_Graph6dfsrecEiRiRSt6vectorIiSaIiEES4_S4_S4_+0x4b6>
            p[edge] = v;
    3083:	8b 7c 24 0c          	mov    0xc(%rsp),%edi
    3087:	42 89 3c a0          	mov    %edi,(%rax,%r12,4)
        in[v] = time++;
    308b:	48 8b 3c 24          	mov    (%rsp),%rdi
        visited[v] = 1;
    308f:	c7 01 01 00 00 00    	movl   $0x1,(%rcx)
        in[v] = time++;
    3095:	41 8b 4d 00          	mov    0x0(%r13),%ecx
    3099:	8d 71 01             	lea    0x1(%rcx),%esi
    309c:	41 89 75 00          	mov    %esi,0x0(%r13)
    30a0:	42 89 0c a7          	mov    %ecx,(%rdi,%r12,4)
    30a4:	4b 8d 0c 64          	lea    (%r12,%r12,2),%rcx
    30a8:	49 8d 0c ce          	lea    (%r14,%rcx,8),%rcx
    30ac:	48 8b 19             	mov    (%rcx),%rbx
    30af:	4c 8b 79 08          	mov    0x8(%rcx),%r15
        for (auto edge : tree_edges[v]) {
    30b3:	4c 39 fb             	cmp    %r15,%rbx
    30b6:	0f 84 b8 00 00 00    	je     3174 <_ZN9MST_Graph6dfsrecEiRiRSt6vectorIiSaIiEES4_S4_S4_+0x4a4>
    30bc:	4c 89 ef             	mov    %r13,%rdi
    30bf:	44 89 64 24 2c       	mov    %r12d,0x2c(%rsp)
    30c4:	4d 89 e5             	mov    %r12,%r13
    30c7:	4d 89 ca             	mov    %r9,%r10
    30ca:	49 89 d4             	mov    %rdx,%r12
    30cd:	48 89 fa             	mov    %rdi,%rdx
    30d0:	48 63 0b             	movslq (%rbx),%rcx
            if (visited[edge]) {
    30d3:	41 8b 3c 8b          	mov    (%r11,%rcx,4),%edi
        for (auto edge : tree_edges[v]) {
    30d7:	48 89 ce             	mov    %rcx,%rsi
            if (visited[edge]) {
    30da:	85 ff                	test   %edi,%edi
    30dc:	75 7a                	jne    3158 <_ZN9MST_Graph6dfsrecEiRiRSt6vectorIiSaIiEES4_S4_S4_+0x488>
            p[edge] = v;
    30de:	8b 7c 24 2c          	mov    0x2c(%rsp),%edi
    30e2:	4c 89 9c 24 10 01 00 	mov    %r11,0x110(%rsp)
    30e9:	00 
            dfsrec(edge, time, visited, p, in, out);
    30ea:	48 83 ec 08          	sub    $0x8,%rsp
            p[edge] = v;
    30ee:	48 89 84 24 10 01 00 	mov    %rax,0x110(%rsp)
    30f5:	00 
    30f6:	89 3c 88             	mov    %edi,(%rax,%rcx,4)
            dfsrec(edge, time, visited, p, in, out);
    30f9:	41 52                	push   %r10
    30fb:	4c 8b 8c 24 08 01 00 	mov    0x108(%rsp),%r9
    3102:	00 
    3103:	4c 8b 84 24 d0 00 00 	mov    0xd0(%rsp),%r8
    310a:	00 
    310b:	48 8b 8c 24 00 01 00 	mov    0x100(%rsp),%rcx
    3112:	00 
    3113:	48 8b bc 24 f8 00 00 	mov    0xf8(%rsp),%rdi
    311a:	00 
    311b:	4c 89 94 24 70 01 00 	mov    %r10,0x170(%rsp)
    3122:	00 
    3123:	48 89 94 24 10 01 00 	mov    %rdx,0x110(%rsp)
    312a:	00 
    312b:	e8 a0 fb ff ff       	call   2cd0 <_ZN9MST_Graph6dfsrecEiRiRSt6vectorIiSaIiEES4_S4_S4_>
    3130:	58                   	pop    %rax
    3131:	5a                   	pop    %rdx
    3132:	4c 8b 9c 24 10 01 00 	mov    0x110(%rsp),%r11
    3139:	00 
    313a:	48 8b 84 24 08 01 00 	mov    0x108(%rsp),%rax
    3141:	00 
    3142:	4c 8b 94 24 60 01 00 	mov    0x160(%rsp),%r10
    3149:	00 
    314a:	48 8b 94 24 00 01 00 	mov    0x100(%rsp),%rdx
    3151:	00 
    3152:	66 0f 1f 44 00 00    	nopw   0x0(%rax,%rax,1)
        for (auto edge : tree_edges[v]) {
    3158:	48 83 c3 04          	add    $0x4,%rbx
    315c:	49 39 df             	cmp    %rbx,%r15
    315f:	0f 85 6b ff ff ff    	jne    30d0 <_ZN9MST_Graph6dfsrecEiRiRSt6vectorIiSaIiEES4_S4_S4_+0x400>
    3165:	48 89 d7             	mov    %rdx,%rdi
    3168:	4d 89 d1             	mov    %r10,%r9
    316b:	4c 89 e2             	mov    %r12,%rdx
    316e:	4d 89 ec             	mov    %r13,%r12
    3171:	49 89 fd             	mov    %rdi,%r13
        }
        out[v] = time++;
    3174:	41 8b 4d 00          	mov    0x0(%r13),%ecx
    3178:	8d 71 01             	lea    0x1(%rcx),%esi
    317b:	41 89 75 00          	mov    %esi,0x0(%r13)
    317f:	49 8b 31             	mov    (%r9),%rsi
    3182:	42 89 0c a6          	mov    %ecx,(%rsi,%r12,4)
        for (auto edge : tree_edges[v]) {
    3186:	48 83 c5 04          	add    $0x4,%rbp
    318a:	48 39 ea             	cmp    %rbp,%rdx
    318d:	0f 85 dc fe ff ff    	jne    306f <_ZN9MST_Graph6dfsrecEiRiRSt6vectorIiSaIiEES4_S4_S4_+0x39f>
    3193:	4c 89 f7             	mov    %r14,%rdi
    3196:	4c 8b 54 24 10       	mov    0x10(%rsp),%r10
    319b:	4c 8b 7c 24 18       	mov    0x18(%rsp),%r15
    31a0:	49 89 c0             	mov    %rax,%r8
    31a3:	4c 8b 74 24 20       	mov    0x20(%rsp),%r14
        out[v] = time++;
    31a8:	41 8b 45 00          	mov    0x0(%r13),%eax
    31ac:	8d 50 01             	lea    0x1(%rax),%edx
    31af:	41 89 55 00          	mov    %edx,0x0(%r13)
    31b3:	49 8b 11             	mov    (%r9),%rdx
    31b6:	42 89 04 ba          	mov    %eax,(%rdx,%r15,4)
        for (auto edge : tree_edges[v]) {
    31ba:	49 83 c6 04          	add    $0x4,%r14
    31be:	4d 39 f2             	cmp    %r14,%r10
    31c1:	0f 85 44 fe ff ff    	jne    300b <_ZN9MST_Graph6dfsrecEiRiRSt6vectorIiSaIiEES4_S4_S4_+0x33b>
    31c7:	48 8b 6c 24 30       	mov    0x30(%rsp),%rbp
    31cc:	4c 8b 64 24 38       	mov    0x38(%rsp),%r12
    31d1:	48 8b 44 24 40       	mov    0x40(%rsp),%rax
        out[v] = time++;
    31d6:	41 8b 55 00          	mov    0x0(%r13),%edx
    31da:	8d 4a 01             	lea    0x1(%rdx),%ecx
    31dd:	41 89 4d 00          	mov    %ecx,0x0(%r13)
    31e1:	49 8b 09             	mov    (%r9),%rcx
    31e4:	42 89 14 a1          	mov    %edx,(%rcx,%r12,4)
        for (auto edge : tree_edges[v]) {
    31e8:	48 83 c0 04          	add    $0x4,%rax
    31ec:	48 39 c5             	cmp    %rax,%rbp
    31ef:	0f 85 b3 fd ff ff    	jne    2fa8 <_ZN9MST_Graph6dfsrecEiRiRSt6vectorIiSaIiEES4_S4_S4_+0x2d8>
    31f5:	4c 8b 74 24 50       	mov    0x50(%rsp),%r14
    31fa:	48 8b 5c 24 58       	mov    0x58(%rsp),%rbx
    31ff:	48 8b 6c 24 60       	mov    0x60(%rsp),%rbp
        out[v] = time++;
    3204:	41 8b 45 00          	mov    0x0(%r13),%eax
    3208:	8d 48 01             	lea    0x1(%rax),%ecx
    320b:	41 89 4d 00          	mov    %ecx,0x0(%r13)
    320f:	49 8b 09             	mov    (%r9),%rcx
    3212:	89 04 99             	mov    %eax,(%rcx,%rbx,4)
        for (auto edge : tree_edges[v]) {
    3215:	48 83 c5 04          	add    $0x4,%rbp
    3219:	49 39 ee             	cmp    %rbp,%r14
    321c:	0f 85 1f fd ff ff    	jne    2f41 <_ZN9MST_Graph6dfsrecEiRiRSt6vectorIiSaIiEES4_S4_S4_+0x271>
    3222:	4c 89 ef             	mov    %r13,%rdi
    3225:	4c 8b 64 24 70       	mov    0x70(%rsp),%r12
    322a:	48 8b 6c 24 78       	mov    0x78(%rsp),%rbp
    322f:	4c 8b ac 24 80 00 00 	mov    0x80(%rsp),%r13
    3236:	00 
        out[v] = time++;
    3237:	8b 17                	mov    (%rdi),%edx
    3239:	8d 4a 01             	lea    0x1(%rdx),%ecx
    323c:	89 0f                	mov    %ecx,(%rdi)
    323e:	49 8b 09             	mov    (%r9),%rcx
    3241:	89 14 a9             	mov    %edx,(%rcx,%rbp,4)
        for (auto edge : tree_edges[v]) {
    3244:	49 83 c5 04          	add    $0x4,%r13
    3248:	4d 39 ec             	cmp    %r13,%r12
    324b:	0f 85 82 fc ff ff    	jne    2ed3 <_ZN9MST_Graph6dfsrecEiRiRSt6vectorIiSaIiEES4_S4_S4_+0x203>
    3251:	4c 8b b4 24 88 00 00 	mov    0x88(%rsp),%r14
    3258:	00 
    3259:	4c 8b a4 24 90 00 00 	mov    0x90(%rsp),%r12
    3260:	00 
    3261:	4c 8b ac 24 98 00 00 	mov    0x98(%rsp),%r13
    3268:	00 
        out[v] = time++;
    3269:	8b 17                	mov    (%rdi),%edx
    326b:	8d 4a 01             	lea    0x1(%rdx),%ecx
    326e:	89 0f                	mov    %ecx,(%rdi)
    3270:	49 8b 09             	mov    (%r9),%rcx
    3273:	42 89 14 a1          	mov    %edx,(%rcx,%r12,4)
        for (auto edge : tree_edges[v]) {
    3277:	49 83 c5 04          	add    $0x4,%r13
    327b:	4d 39 ee             	cmp    %r13,%r14
    327e:	0f 85 da fb ff ff    	jne    2e5e <_ZN9MST_Graph6dfsrecEiRiRSt6vectorIiSaIiEES4_S4_S4_+0x18e>
    3284:	4c 8b bc 24 a8 00 00 	mov    0xa8(%rsp),%r15
    328b:	00 
    328c:	48 8b 9c 24 b0 00 00 	mov    0xb0(%rsp),%rbx
    3293:	00 
    3294:	4c 8b a4 24 b8 00 00 	mov    0xb8(%rsp),%r12
    329b:	00 
        out[v] = time++;
    329c:	8b 07                	mov    (%rdi),%eax
    329e:	8d 50 01             	lea    0x1(%rax),%edx
    32a1:	89 17                	mov    %edx,(%rdi)
    32a3:	49 8b 11             	mov    (%r9),%rdx
    32a6:	89 04 9a             	mov    %eax,(%rdx,%rbx,4)
        for (auto edge : tree_edges[v]) {
    32a9:	49 83 c4 04          	add    $0x4,%r12
    32ad:	4d 39 e7             	cmp    %r12,%r15
    32b0:	0f 85 35 fb ff ff    	jne    2deb <_ZN9MST_Graph6dfsrecEiRiRSt6vectorIiSaIiEES4_S4_S4_+0x11b>
    32b6:	48 8b ac 24 c8 00 00 	mov    0xc8(%rsp),%rbp
    32bd:	00 
    32be:	4c 8b b4 24 d0 00 00 	mov    0xd0(%rsp),%r14
    32c5:	00 
    32c6:	4c 8b ac 24 d8 00 00 	mov    0xd8(%rsp),%r13
    32cd:	00 
        out[v] = time++;
    32ce:	8b 17                	mov    (%rdi),%edx
    32d0:	8d 4a 01             	lea    0x1(%rdx),%ecx
    32d3:	89 0f                	mov    %ecx,(%rdi)
    32d5:	49 8b 09             	mov    (%r9),%rcx
    32d8:	89 14 a9             	mov    %edx,(%rcx,%rbp,4)
        for (auto edge : tree_edges[v]) {
    32db:	49 83 c5 04          	add    $0x4,%r13
    32df:	4d 39 ee             	cmp    %r13,%r14
    32e2:	0f 85 84 fa ff ff    	jne    2d6c <_ZN9MST_Graph6dfsrecEiRiRSt6vectorIiSaIiEES4_S4_S4_+0x9c>
    32e8:	48 8b ac 24 18 01 00 	mov    0x118(%rsp),%rbp
    32ef:	00 
        out[v] = time++;
    32f0:	8b 07                	mov    (%rdi),%eax
    32f2:	8d 50 01             	lea    0x1(%rax),%edx
    32f5:	89 17                	mov    %edx,(%rdi)
    32f7:	49 8b 11             	mov    (%r9),%rdx
    32fa:	89 04 aa             	mov    %eax,(%rdx,%rbp,4)
    }
    32fd:	48 81 c4 28 01 00 00 	add    $0x128,%rsp
    3304:	5b                   	pop    %rbx
    3305:	5d                   	pop    %rbp
    3306:	41 5c                	pop    %r12
    3308:	41 5d                	pop    %r13
    330a:	41 5e                	pop    %r14
    330c:	41 5f                	pop    %r15
    330e:	c3                   	ret
    330f:	90                   	nop

0000000000003310 <_ZN5GraphD1Ev>:
struct Graph 
    3310:	f3 0f 1e fa          	endbr64
    3314:	53                   	push   %rbx
    3315:	48 89 fb             	mov    %rdi,%rbx
		      _M_impl._M_end_of_storage - _M_impl._M_start);
    3318:	48 8b 7f 38          	mov    0x38(%rdi),%rdi
	if (__p)
    331c:	48 85 ff             	test   %rdi,%rdi
    331f:	74 0c                	je     332d <_ZN5GraphD1Ev+0x1d>
		      _M_impl._M_end_of_storage - _M_impl._M_start);
    3321:	48 8b 73 48          	mov    0x48(%rbx),%rsi
    3325:	48 29 fe             	sub    %rdi,%rsi
    3328:	e8 d3 de ff ff       	call   1200 <_ZdlPvm@plt>
    332d:	48 8b 7b 20          	mov    0x20(%rbx),%rdi
	if (__p)
    3331:	48 85 ff             	test   %rdi,%rdi
    3334:	74 0c                	je     3342 <_ZN5GraphD1Ev+0x32>
		      _M_impl._M_end_of_storage - _M_impl._M_start);
    3336:	48 8b 73 30          	mov    0x30(%rbx),%rsi
    333a:	48 29 fe             	sub    %rdi,%rsi
    333d:	e8 be de ff ff       	call   1200 <_ZdlPvm@plt>
    3342:	48 8b 7b 08          	mov    0x8(%rbx),%rdi
	if (__p)
    3346:	48 85 ff             	test   %rdi,%rdi
    3349:	74 15                	je     3360 <_ZN5GraphD1Ev+0x50>
		      _M_impl._M_end_of_storage - _M_impl._M_start);
    334b:	48 8b 73 18          	mov    0x18(%rbx),%rsi
    334f:	5b                   	pop    %rbx
    3350:	48 29 fe             	sub    %rdi,%rsi
    3353:	e9 a8 de ff ff       	jmp    1200 <_ZdlPvm@plt>
    3358:	0f 1f 84 00 00 00 00 	nopl   0x0(%rax,%rax,1)
    335f:	00 
    3360:	5b                   	pop    %rbx
    3361:	c3                   	ret
    3362:	66 2e 0f 1f 84 00 00 	cs nopw 0x0(%rax,%rax,1)
    3369:	00 00 00 
    336c:	0f 1f 40 00          	nopl   0x0(%rax)

0000000000003370 <_ZNSt12_Vector_baseIiSaIiEED1Ev>:
      ~_Vector_base() _GLIBCXX_NOEXCEPT
    3370:	f3 0f 1e fa          	endbr64
		      _M_impl._M_end_of_storage - _M_impl._M_start);
    3374:	48 8b 07             	mov    (%rdi),%rax
	if (__p)
    3377:	48 85 c0             	test   %rax,%rax
    337a:	74 14                	je     3390 <_ZNSt12_Vector_baseIiSaIiEED1Ev+0x20>
		      _M_impl._M_end_of_storage - _M_impl._M_start);
    337c:	48 8b 77 10          	mov    0x10(%rdi),%rsi
    3380:	48 89 c7             	mov    %rax,%rdi
    3383:	48 29 c6             	sub    %rax,%rsi
    3386:	e9 75 de ff ff       	jmp    1200 <_ZdlPvm@plt>
    338b:	0f 1f 44 00 00       	nopl   0x0(%rax,%rax,1)
      }
    3390:	c3                   	ret
    3391:	66 2e 0f 1f 84 00 00 	cs nopw 0x0(%rax,%rax,1)
    3398:	00 00 00 
    339b:	0f 1f 44 00 00       	nopl   0x0(%rax,%rax,1)

00000000000033a0 <_ZNSt6vectorIiSaIiEED1Ev>:
      ~vector() _GLIBCXX_NOEXCEPT
    33a0:	f3 0f 1e fa          	endbr64
		      _M_impl._M_end_of_storage - _M_impl._M_start);
    33a4:	48 8b 07             	mov    (%rdi),%rax
	if (__p)
    33a7:	48 85 c0             	test   %rax,%rax
    33aa:	74 14                	je     33c0 <_ZNSt6vectorIiSaIiEED1Ev+0x20>
		      _M_impl._M_end_of_storage - _M_impl._M_start);
    33ac:	48 8b 77 10          	mov    0x10(%rdi),%rsi
    33b0:	48 89 c7             	mov    %rax,%rdi
    33b3:	48 29 c6             	sub    %rax,%rsi
    33b6:	e9 45 de ff ff       	jmp    1200 <_ZdlPvm@plt>
    33bb:	0f 1f 44 00 00       	nopl   0x0(%rax,%rax,1)
      }
    33c0:	c3                   	ret
    33c1:	66 2e 0f 1f 84 00 00 	cs nopw 0x0(%rax,%rax,1)
    33c8:	00 00 00 
    33cb:	0f 1f 44 00 00       	nopl   0x0(%rax,%rax,1)

00000000000033d0 <_ZN9UnionFindC1Eib>:
	UnionFind(int n, bool flag = false) {
    33d0:	f3 0f 1e fa          	endbr64
    33d4:	41 57                	push   %r15
	: _M_start(), _M_finish(), _M_end_of_storage()
    33d6:	66 0f ef c0          	pxor   %xmm0,%xmm0
    33da:	41 56                	push   %r14
    33dc:	41 55                	push   %r13
    33de:	41 54                	push   %r12
    33e0:	55                   	push   %rbp
		parent = vector<int>(n);
    33e1:	48 63 ee             	movslq %esi,%rbp
	UnionFind(int n, bool flag = false) {
    33e4:	53                   	push   %rbx

      // Called by constructors to check initial size.
      static _GLIBCXX20_CONSTEXPR size_type
      _S_check_init_len(size_type __n, const allocator_type& __a)
      {
	if (__n > _S_max_size(_Tp_alloc_type(__a)))
    33e5:	48 89 e8             	mov    %rbp,%rax
    33e8:	48 89 fb             	mov    %rdi,%rbx
    33eb:	48 83 ec 08          	sub    $0x8,%rsp
    33ef:	48 c1 e8 3d          	shr    $0x3d,%rax
	: _M_start(), _M_finish(), _M_end_of_storage()
    33f3:	0f 11 07             	movups %xmm0,(%rdi)
    33f6:	0f 11 47 10          	movups %xmm0,0x10(%rdi)
    33fa:	0f 11 47 20          	movups %xmm0,0x20(%rdi)
	if (__n > _S_max_size(_Tp_alloc_type(__a)))
    33fe:	0f 85 2f 01 00 00    	jne    3533 <_ZN9UnionFindC1Eib+0x163>
    3404:	41 89 d4             	mov    %edx,%r12d
	return __n != 0 ? _Tr::allocate(_M_impl, __n) : pointer();
    3407:	48 85 ed             	test   %rbp,%rbp
    340a:	0f 84 f0 00 00 00    	je     3500 <_ZN9UnionFindC1Eib+0x130>
	return static_cast<_Tp*>(_GLIBCXX_OPERATOR_NEW(__n * sizeof(_Tp)));
    3410:	4c 8d 34 ad 00 00 00 	lea    0x0(,%rbp,4),%r14
    3417:	00 
    3418:	4c 89 f7             	mov    %r14,%rdi
    341b:	e8 d0 dd ff ff       	call   11f0 <_Znwm@plt>
	  // Allow std::_Construct to be used in constant expressions.
	  std::construct_at(__p, std::forward<_Args>(__args)...);
	  return;
	}
#endif
      ::new((void*)__p) _Tp(std::forward<_Args>(__args)...);
    3420:	c7 00 00 00 00 00    	movl   $0x0,(%rax)
    3426:	49 89 c5             	mov    %rax,%r13
	this->_M_impl._M_end_of_storage = this->_M_impl._M_start + __n;
    3429:	4e 8d 3c 30          	lea    (%rax,%r14,1),%r15
	      ++__first;
    342d:	48 8d 40 04          	lea    0x4(%rax),%rax
      if (__n <= 0)
    3431:	48 83 fd 01          	cmp    $0x1,%rbp
    3435:	0f 84 ed 00 00 00    	je     3528 <_ZN9UnionFindC1Eib+0x158>
      for (; __first != __last; ++__first)
    343b:	4c 39 f8             	cmp    %r15,%rax
    343e:	74 0e                	je     344e <_ZN9UnionFindC1Eib+0x7e>
	*__first = __tmp;
    3440:	49 8d 56 fc          	lea    -0x4(%r14),%rdx
    3444:	31 f6                	xor    %esi,%esi
    3446:	48 89 c7             	mov    %rax,%rdi
    3449:	e8 52 dd ff ff       	call   11a0 <memset@plt>
    344e:	4c 89 f8             	mov    %r15,%rax
    3451:	0f 1f 80 00 00 00 00 	nopl   0x0(%rax)
	  _M_start = __x._M_start;
    3458:	48 8b 3b             	mov    (%rbx),%rdi
	  _M_end_of_storage = __x._M_end_of_storage;
    345b:	48 8b 73 10          	mov    0x10(%rbx),%rsi
	  _M_start = __x._M_start;
    345f:	4c 89 2b             	mov    %r13,(%rbx)
	  _M_finish = __x._M_finish;
    3462:	48 89 43 08          	mov    %rax,0x8(%rbx)
	  _M_end_of_storage = __x._M_end_of_storage;
    3466:	4c 89 7b 10          	mov    %r15,0x10(%rbx)
		      _M_impl._M_end_of_storage - _M_impl._M_start);
    346a:	48 29 fe             	sub    %rdi,%rsi
	if (__p)
    346d:	48 85 ff             	test   %rdi,%rdi
    3470:	74 05                	je     3477 <_ZN9UnionFindC1Eib+0xa7>
	_GLIBCXX_OPERATOR_DELETE(_GLIBCXX_SIZED_DEALLOC(__p, __n));
    3472:	e8 89 dd ff ff       	call   1200 <_ZdlPvm@plt>
	return static_cast<_Tp*>(_GLIBCXX_OPERATOR_NEW(__n * sizeof(_Tp)));
    3477:	4c 89 f7             	mov    %r14,%rdi
    347a:	e8 71 dd ff ff       	call   11f0 <_Znwm@plt>
    347f:	31 f6                	xor    %esi,%esi
    3481:	48 89 c7             	mov    %rax,%rdi
	this->_M_impl._M_end_of_storage = this->_M_impl._M_start + __n;
    3484:	4e 8d 2c 30          	lea    (%rax,%r14,1),%r13
    3488:	4c 89 f2             	mov    %r14,%rdx
    348b:	e8 10 dd ff ff       	call   11a0 <memset@plt>
	  _M_start = __x._M_start;
    3490:	48 8b 7b 18          	mov    0x18(%rbx),%rdi
	  _M_end_of_storage = __x._M_end_of_storage;
    3494:	48 8b 73 28          	mov    0x28(%rbx),%rsi
	  _M_finish = __x._M_finish;
    3498:	4c 89 6b 20          	mov    %r13,0x20(%rbx)
	  _M_start = __x._M_start;
    349c:	48 89 43 18          	mov    %rax,0x18(%rbx)
	  _M_end_of_storage = __x._M_end_of_storage;
    34a0:	4c 89 6b 28          	mov    %r13,0x28(%rbx)
	if (__p)
    34a4:	48 85 ff             	test   %rdi,%rdi
    34a7:	74 08                	je     34b1 <_ZN9UnionFindC1Eib+0xe1>
		      _M_impl._M_end_of_storage - _M_impl._M_start);
    34a9:	48 29 fe             	sub    %rdi,%rsi
	_GLIBCXX_OPERATOR_DELETE(_GLIBCXX_SIZED_DEALLOC(__p, __n));
    34ac:	e8 4f dd ff ff       	call   1200 <_ZdlPvm@plt>
	return *(this->_M_impl._M_start + __n);
    34b1:	48 8b 0b             	mov    (%rbx),%rcx
    34b4:	31 c0                	xor    %eax,%eax
    34b6:	40 f6 c5 01          	test   $0x1,%bpl
    34ba:	74 14                	je     34d0 <_ZN9UnionFindC1Eib+0x100>
			parent[i] = i;
    34bc:	c7 01 00 00 00 00    	movl   $0x0,(%rcx)
		for (int i = 0; i < n; i++) {
    34c2:	b8 01 00 00 00       	mov    $0x1,%eax
    34c7:	48 83 fd 01          	cmp    $0x1,%rbp
    34cb:	74 16                	je     34e3 <_ZN9UnionFindC1Eib+0x113>
    34cd:	0f 1f 00             	nopl   (%rax)
			parent[i] = i;
    34d0:	89 04 81             	mov    %eax,(%rcx,%rax,4)
		for (int i = 0; i < n; i++) {
    34d3:	48 8d 50 01          	lea    0x1(%rax),%rdx
    34d7:	48 83 c0 02          	add    $0x2,%rax
			parent[i] = i;
    34db:	89 14 91             	mov    %edx,(%rcx,%rdx,4)
		for (int i = 0; i < n; i++) {
    34de:	48 39 c5             	cmp    %rax,%rbp
    34e1:	75 ed                	jne    34d0 <_ZN9UnionFindC1Eib+0x100>
		this->flag = flag;
    34e3:	44 88 63 30          	mov    %r12b,0x30(%rbx)
	}
    34e7:	48 83 c4 08          	add    $0x8,%rsp
    34eb:	5b                   	pop    %rbx
    34ec:	5d                   	pop    %rbp
    34ed:	41 5c                	pop    %r12
    34ef:	41 5d                	pop    %r13
    34f1:	41 5e                	pop    %r14
    34f3:	41 5f                	pop    %r15
    34f5:	c3                   	ret
    34f6:	66 2e 0f 1f 84 00 00 	cs nopw 0x0(%rax,%rax,1)
    34fd:	00 00 00 
	  _M_start = __x._M_start;
    3500:	48 8b 7f 18          	mov    0x18(%rdi),%rdi
	  _M_end_of_storage = __x._M_end_of_storage;
    3504:	48 8b 73 28          	mov    0x28(%rbx),%rsi
	  _M_start = __x._M_start;
    3508:	0f 11 43 18          	movups %xmm0,0x18(%rbx)
	  _M_end_of_storage = __x._M_end_of_storage;
    350c:	48 c7 43 28 00 00 00 	movq   $0x0,0x28(%rbx)
    3513:	00 
	if (__p)
    3514:	48 85 ff             	test   %rdi,%rdi
    3517:	74 ca                	je     34e3 <_ZN9UnionFindC1Eib+0x113>
		      _M_impl._M_end_of_storage - _M_impl._M_start);
    3519:	48 29 fe             	sub    %rdi,%rsi
    351c:	e8 df dc ff ff       	call   1200 <_ZdlPvm@plt>
		for (int i = 0; i < n; i++) {
    3521:	eb c0                	jmp    34e3 <_ZN9UnionFindC1Eib+0x113>
    3523:	0f 1f 44 00 00       	nopl   0x0(%rax,%rax,1)
	this->_M_impl._M_end_of_storage = this->_M_impl._M_start + __n;
    3528:	41 be 04 00 00 00    	mov    $0x4,%r14d
    352e:	e9 25 ff ff ff       	jmp    3458 <_ZN9UnionFindC1Eib+0x88>
	  __throw_length_error(
    3533:	48 8d 3d ce 3a 00 00 	lea    0x3ace(%rip),%rdi        # 7008 <_IO_stdin_used+0x8>
    353a:	e8 51 dc ff ff       	call   1190 <_ZSt20__throw_length_errorPKc@plt>
    353f:	f3 0f 1e fa          	endbr64
	}
    3543:	48 89 c5             	mov    %rax,%rbp
    3546:	48 8d 7b 18          	lea    0x18(%rbx),%rdi
    354a:	e8 51 fe ff ff       	call   33a0 <_ZNSt6vectorIiSaIiEED1Ev>
    354f:	48 89 df             	mov    %rbx,%rdi
    3552:	e8 49 fe ff ff       	call   33a0 <_ZNSt6vectorIiSaIiEED1Ev>
    3557:	48 89 ef             	mov    %rbp,%rdi
    355a:	e8 11 dd ff ff       	call   1270 <_Unwind_Resume@plt>
    355f:	90                   	nop

0000000000003560 <_ZNSt6vectorIS_IiSaIiEESaIS1_EED1Ev>:
      ~vector() _GLIBCXX_NOEXCEPT
    3560:	f3 0f 1e fa          	endbr64
    3564:	41 54                	push   %r12
    3566:	49 89 fc             	mov    %rdi,%r12
    3569:	55                   	push   %rbp
    356a:	53                   	push   %rbx
	std::_Destroy(this->_M_impl._M_start, this->_M_impl._M_finish,
    356b:	48 8b 6f 08          	mov    0x8(%rdi),%rbp
    356f:	48 8b 1f             	mov    (%rdi),%rbx
    {
      template<typename _ForwardIterator>
	static _GLIBCXX20_CONSTEXPR void
	__destroy(_ForwardIterator __first, _ForwardIterator __last)
	{
	  for (; __first != __last; ++__first)
    3572:	48 39 dd             	cmp    %rbx,%rbp
    3575:	74 2a                	je     35a1 <_ZNSt6vectorIS_IiSaIiEESaIS1_EED1Ev+0x41>
    3577:	66 0f 1f 84 00 00 00 	nopw   0x0(%rax,%rax,1)
    357e:	00 00 
		      _M_impl._M_end_of_storage - _M_impl._M_start);
    3580:	48 8b 3b             	mov    (%rbx),%rdi
	if (__p)
    3583:	48 85 ff             	test   %rdi,%rdi
    3586:	74 0c                	je     3594 <_ZNSt6vectorIS_IiSaIiEESaIS1_EED1Ev+0x34>
		      _M_impl._M_end_of_storage - _M_impl._M_start);
    3588:	48 8b 73 10          	mov    0x10(%rbx),%rsi
    358c:	48 29 fe             	sub    %rdi,%rsi
    358f:	e8 6c dc ff ff       	call   1200 <_ZdlPvm@plt>
    3594:	48 83 c3 18          	add    $0x18,%rbx
    3598:	48 39 dd             	cmp    %rbx,%rbp
    359b:	75 e3                	jne    3580 <_ZNSt6vectorIS_IiSaIiEESaIS1_EED1Ev+0x20>
    359d:	49 8b 1c 24          	mov    (%r12),%rbx
	if (__p)
    35a1:	48 85 db             	test   %rbx,%rbx
    35a4:	74 1a                	je     35c0 <_ZNSt6vectorIS_IiSaIiEESaIS1_EED1Ev+0x60>
		      _M_impl._M_end_of_storage - _M_impl._M_start);
    35a6:	49 8b 74 24 10       	mov    0x10(%r12),%rsi
    35ab:	48 89 df             	mov    %rbx,%rdi
    35ae:	48 29 de             	sub    %rbx,%rsi
      }
    35b1:	5b                   	pop    %rbx
    35b2:	5d                   	pop    %rbp
    35b3:	41 5c                	pop    %r12
    35b5:	e9 46 dc ff ff       	jmp    1200 <_ZdlPvm@plt>
    35ba:	66 0f 1f 44 00 00    	nopw   0x0(%rax,%rax,1)
    35c0:	5b                   	pop    %rbx
    35c1:	5d                   	pop    %rbp
    35c2:	41 5c                	pop    %r12
    35c4:	c3                   	ret
    35c5:	66 2e 0f 1f 84 00 00 	cs nopw 0x0(%rax,%rax,1)
    35cc:	00 00 00 
    35cf:	90                   	nop

00000000000035d0 <_ZNSt6vectorISt4pairIiiESaIS1_EED1Ev>:
      ~vector() _GLIBCXX_NOEXCEPT
    35d0:	f3 0f 1e fa          	endbr64
		      _M_impl._M_end_of_storage - _M_impl._M_start);
    35d4:	48 8b 07             	mov    (%rdi),%rax
	if (__p)
    35d7:	48 85 c0             	test   %rax,%rax
    35da:	74 14                	je     35f0 <_ZNSt6vectorISt4pairIiiESaIS1_EED1Ev+0x20>
		      _M_impl._M_end_of_storage - _M_impl._M_start);
    35dc:	48 8b 77 10          	mov    0x10(%rdi),%rsi
    35e0:	48 89 c7             	mov    %rax,%rdi
    35e3:	48 29 c6             	sub    %rax,%rsi
    35e6:	e9 15 dc ff ff       	jmp    1200 <_ZdlPvm@plt>
    35eb:	0f 1f 44 00 00       	nopl   0x0(%rax,%rax,1)
      }
    35f0:	c3                   	ret
    35f1:	66 2e 0f 1f 84 00 00 	cs nopw 0x0(%rax,%rax,1)
    35f8:	00 00 00 
    35fb:	0f 1f 44 00 00       	nopl   0x0(%rax,%rax,1)

0000000000003600 <_ZN9MST_GraphC1Ei>:
    MST_Graph(int V) : uf(V) {
    3600:	f3 0f 1e fa          	endbr64
    3604:	41 57                	push   %r15
	: _M_start(), _M_finish(), _M_end_of_storage()
    3606:	66 0f ef c0          	pxor   %xmm0,%xmm0
    360a:	31 d2                	xor    %edx,%edx
    360c:	41 56                	push   %r14
    360e:	41 55                	push   %r13
    3610:	4c 8d af 98 00 00 00 	lea    0x98(%rdi),%r13
    3617:	41 54                	push   %r12
    3619:	55                   	push   %rbp
    361a:	48 63 ee             	movslq %esi,%rbp
    361d:	53                   	push   %rbx
    361e:	89 ee                	mov    %ebp,%esi
    3620:	48 89 fb             	mov    %rdi,%rbx
    3623:	48 83 ec 48          	sub    $0x48,%rsp
    3627:	64 48 8b 04 25 28 00 	mov    %fs:0x28,%rax
    362e:	00 00 
    3630:	48 89 44 24 38       	mov    %rax,0x38(%rsp)
    3635:	31 c0                	xor    %eax,%eax
    3637:	0f 11 47 08          	movups %xmm0,0x8(%rdi)
    363b:	0f 11 47 18          	movups %xmm0,0x18(%rdi)
    363f:	0f 11 47 28          	movups %xmm0,0x28(%rdi)
    3643:	0f 11 47 38          	movups %xmm0,0x38(%rdi)
    3647:	0f 11 47 48          	movups %xmm0,0x48(%rdi)
    364b:	0f 11 47 58          	movups %xmm0,0x58(%rdi)
    364f:	0f 11 47 68          	movups %xmm0,0x68(%rdi)
    3653:	0f 11 47 78          	movups %xmm0,0x78(%rdi)
    3657:	0f 11 87 88 00 00 00 	movups %xmm0,0x88(%rdi)
    365e:	4c 89 ef             	mov    %r13,%rdi
    3661:	e8 6a fd ff ff       	call   33d0 <_ZN9UnionFindC1Eib>
      _M_header._M_left = &_M_header;
    3666:	4c 8d a3 d8 00 00 00 	lea    0xd8(%rbx),%r12
        this->V = V;
    366d:	89 2b                	mov    %ebp,(%rbx)
	if (__n > _S_max_size(_Tp_alloc_type(__a)))
    366f:	48 b8 55 55 55 55 55 	movabs $0x555555555555555,%rax
    3676:	55 55 05 
      _M_header._M_color = _S_red;
    3679:	c7 83 d8 00 00 00 00 	movl   $0x0,0xd8(%rbx)
    3680:	00 00 00 
      _M_header._M_parent = 0;
    3683:	48 c7 83 e0 00 00 00 	movq   $0x0,0xe0(%rbx)
    368a:	00 00 00 00 
      _M_header._M_left = &_M_header;
    368e:	4c 89 a3 e8 00 00 00 	mov    %r12,0xe8(%rbx)
      _M_header._M_right = &_M_header;
    3695:	4c 89 a3 f0 00 00 00 	mov    %r12,0xf0(%rbx)
      _M_node_count = 0;
    369c:	48 c7 83 f8 00 00 00 	movq   $0x0,0xf8(%rbx)
    36a3:	00 00 00 00 
        this->E = 0;
    36a7:	c7 43 04 00 00 00 00 	movl   $0x0,0x4(%rbx)
        ind = 0;
    36ae:	c7 83 00 01 00 00 00 	movl   $0x0,0x100(%rbx)
    36b5:	00 00 00 
    36b8:	48 39 e8             	cmp    %rbp,%rax
    36bb:	0f 82 f2 01 00 00    	jb     38b3 <_ZN9MST_GraphC1Ei+0x2b3>
	return __n != 0 ? _Tr::allocate(_M_impl, __n) : pointer();
    36c1:	48 85 ed             	test   %rbp,%rbp
    36c4:	0f 84 be 01 00 00    	je     3888 <_ZN9MST_GraphC1Ei+0x288>
	return static_cast<_Tp*>(_GLIBCXX_OPERATOR_NEW(__n * sizeof(_Tp)));
    36ca:	48 8d 4c 6d 00       	lea    0x0(%rbp,%rbp,2),%rcx
    36cf:	48 8d 2c cd 00 00 00 	lea    0x0(,%rcx,8),%rbp
    36d6:	00 
    36d7:	48 89 ef             	mov    %rbp,%rdi
    36da:	e8 11 db ff ff       	call   11f0 <_Znwm@plt>
	this->_M_impl._M_end_of_storage = this->_M_impl._M_start + __n;
    36df:	48 8d 0c 28          	lea    (%rax,%rbp,1),%rcx
	  _ForwardIterator __cur = __first;
    36e3:	48 89 c2             	mov    %rax,%rdx
	: _M_start(), _M_finish(), _M_end_of_storage()
    36e6:	66 0f ef c0          	pxor   %xmm0,%xmm0
    36ea:	66 0f 1f 44 00 00    	nopw   0x0(%rax,%rax,1)
    36f0:	48 c7 42 10 00 00 00 	movq   $0x0,0x10(%rdx)
    36f7:	00 
	      for (; __n > 0; --__n, (void) ++__cur)
    36f8:	48 83 c2 18          	add    $0x18,%rdx
    36fc:	0f 11 42 e8          	movups %xmm0,-0x18(%rdx)
    3700:	48 39 ca             	cmp    %rcx,%rdx
    3703:	75 eb                	jne    36f0 <_ZN9MST_GraphC1Ei+0xf0>
	  _M_start = __x._M_start;
    3705:	4c 8b 6b 08          	mov    0x8(%rbx),%r13
	  _M_finish = __x._M_finish;
    3709:	4c 8b 7b 10          	mov    0x10(%rbx),%r15
	  _M_start = __x._M_start;
    370d:	48 89 43 08          	mov    %rax,0x8(%rbx)
	  _M_end_of_storage = __x._M_end_of_storage;
    3711:	4c 8b 73 18          	mov    0x18(%rbx),%r14
	  _M_finish = __x._M_finish;
    3715:	48 89 4b 10          	mov    %rcx,0x10(%rbx)
	  _M_end_of_storage = __x._M_end_of_storage;
    3719:	48 89 4b 18          	mov    %rcx,0x18(%rbx)
    371d:	4c 89 ed             	mov    %r13,%rbp
    3720:	4d 39 fd             	cmp    %r15,%r13
    3723:	74 21                	je     3746 <_ZN9MST_GraphC1Ei+0x146>
    3725:	0f 1f 00             	nopl   (%rax)
		      _M_impl._M_end_of_storage - _M_impl._M_start);
    3728:	48 8b 7d 00          	mov    0x0(%rbp),%rdi
	if (__p)
    372c:	48 85 ff             	test   %rdi,%rdi
    372f:	74 0c                	je     373d <_ZN9MST_GraphC1Ei+0x13d>
		      _M_impl._M_end_of_storage - _M_impl._M_start);
    3731:	48 8b 75 10          	mov    0x10(%rbp),%rsi
    3735:	48 29 fe             	sub    %rdi,%rsi
	_GLIBCXX_OPERATOR_DELETE(_GLIBCXX_SIZED_DEALLOC(__p, __n));
    3738:	e8 c3 da ff ff       	call   1200 <_ZdlPvm@plt>
    373d:	48 83 c5 18          	add    $0x18,%rbp
    3741:	49 39 ef             	cmp    %rbp,%r15
    3744:	75 e2                	jne    3728 <_ZN9MST_GraphC1Ei+0x128>
	if (__p)
    3746:	4d 85 ed             	test   %r13,%r13
    3749:	74 0e                	je     3759 <_ZN9MST_GraphC1Ei+0x159>
		      _M_impl._M_end_of_storage - _M_impl._M_start);
    374b:	4c 89 f6             	mov    %r14,%rsi
    374e:	4c 89 ef             	mov    %r13,%rdi
    3751:	4c 29 ee             	sub    %r13,%rsi
    3754:	e8 a7 da ff ff       	call   1200 <_ZdlPvm@plt>
	  _M_start = __x._M_start;
    3759:	48 8b 7b 38          	mov    0x38(%rbx),%rdi
    375d:	66 0f ef c0          	pxor   %xmm0,%xmm0
	  _M_end_of_storage = __x._M_end_of_storage;
    3761:	48 8b 73 48          	mov    0x48(%rbx),%rsi
    3765:	48 c7 43 48 00 00 00 	movq   $0x0,0x48(%rbx)
    376c:	00 
	  _M_start = __x._M_start;
    376d:	0f 11 43 38          	movups %xmm0,0x38(%rbx)
	if (__p)
    3771:	48 85 ff             	test   %rdi,%rdi
    3774:	74 08                	je     377e <_ZN9MST_GraphC1Ei+0x17e>
		      _M_impl._M_end_of_storage - _M_impl._M_start);
    3776:	48 29 fe             	sub    %rdi,%rsi
    3779:	e8 82 da ff ff       	call   1200 <_ZdlPvm@plt>
	  _M_start = __x._M_start;
    377e:	48 8b 7b 20          	mov    0x20(%rbx),%rdi
    3782:	66 0f ef c0          	pxor   %xmm0,%xmm0
	  _M_end_of_storage = __x._M_end_of_storage;
    3786:	48 8b 73 30          	mov    0x30(%rbx),%rsi
    378a:	48 c7 43 30 00 00 00 	movq   $0x0,0x30(%rbx)
    3791:	00 
	  _M_start = __x._M_start;
    3792:	0f 11 43 20          	movups %xmm0,0x20(%rbx)
	if (__p)
    3796:	48 85 ff             	test   %rdi,%rdi
    3799:	74 08                	je     37a3 <_ZN9MST_GraphC1Ei+0x1a3>
		      _M_impl._M_end_of_storage - _M_impl._M_start);
    379b:	48 29 fe             	sub    %rdi,%rsi
    379e:	e8 5d da ff ff       	call   1200 <_ZdlPvm@plt>
      { return static_cast<_Link_type>(this->_M_impl._M_header._M_parent); }
    37a3:	48 8b ab e0 00 00 00 	mov    0xe0(%rbx),%rbp
      _M_header._M_left = &_M_header;
    37aa:	48 8d 44 24 08       	lea    0x8(%rsp),%rax
      _M_header._M_color = _S_red;
    37af:	c7 44 24 08 00 00 00 	movl   $0x0,0x8(%rsp)
    37b6:	00 
      _M_header._M_parent = 0;
    37b7:	48 c7 44 24 10 00 00 	movq   $0x0,0x10(%rsp)
    37be:	00 00 
      _M_header._M_left = &_M_header;
    37c0:	48 89 44 24 18       	mov    %rax,0x18(%rsp)
      _M_header._M_right = &_M_header;
    37c5:	48 89 44 24 20       	mov    %rax,0x20(%rsp)
      _M_node_count = 0;
    37ca:	48 c7 44 24 28 00 00 	movq   $0x0,0x28(%rsp)
    37d1:	00 00 
      while (__x != 0)
    37d3:	48 85 ed             	test   %rbp,%rbp
    37d6:	0f 84 bc 00 00 00    	je     3898 <_ZN9MST_GraphC1Ei+0x298>
	  _M_erase(_S_right(__x));
    37dc:	48 8b 7d 18          	mov    0x18(%rbp),%rdi
    37e0:	e8 db e1 ff ff       	call   19c0 <_ZNSt8_Rb_treeISt4pairIiiES0_IKS1_iESt10_Select1stIS3_ESt4lessIS1_ESaIS3_EE8_M_eraseEPSt13_Rb_tree_nodeIS3_E.isra.0>
      _S_left(_Base_ptr __x) _GLIBCXX_NOEXCEPT
    37e5:	48 89 ef             	mov    %rbp,%rdi
      { return static_cast<_Link_type>(__x->_M_left); }
    37e8:	48 8b 6d 10          	mov    0x10(%rbp),%rbp
    37ec:	be 30 00 00 00       	mov    $0x30,%esi
    37f1:	e8 0a da ff ff       	call   1200 <_ZdlPvm@plt>
      while (__x != 0)
    37f6:	48 85 ed             	test   %rbp,%rbp
    37f9:	75 e1                	jne    37dc <_ZN9MST_GraphC1Ei+0x1dc>
      if (__x._M_root() != nullptr)
    37fb:	48 8b 44 24 10       	mov    0x10(%rsp),%rax
      _M_header._M_left = &_M_header;
    3800:	4c 89 a3 e8 00 00 00 	mov    %r12,0xe8(%rbx)
      _M_header._M_parent = 0;
    3807:	48 c7 83 e0 00 00 00 	movq   $0x0,0xe0(%rbx)
    380e:	00 00 00 00 
      _M_header._M_right = &_M_header;
    3812:	4c 89 a3 f0 00 00 00 	mov    %r12,0xf0(%rbx)
      _M_node_count = 0;
    3819:	48 c7 83 f8 00 00 00 	movq   $0x0,0xf8(%rbx)
    3820:	00 00 00 00 
      if (__x._M_root() != nullptr)
    3824:	48 85 c0             	test   %rax,%rax
    3827:	74 37                	je     3860 <_ZN9MST_GraphC1Ei+0x260>
      _M_header._M_color = __from._M_header._M_color;
    3829:	8b 54 24 08          	mov    0x8(%rsp),%edx
      _M_header._M_parent = __from._M_header._M_parent;
    382d:	66 48 0f 6e c0       	movq   %rax,%xmm0
    3832:	0f 16 44 24 18       	movhps 0x18(%rsp),%xmm0
      _M_header._M_color = __from._M_header._M_color;
    3837:	89 93 d8 00 00 00    	mov    %edx,0xd8(%rbx)
      _M_header._M_right = __from._M_header._M_right;
    383d:	48 8b 54 24 20       	mov    0x20(%rsp),%rdx
      _M_header._M_parent = __from._M_header._M_parent;
    3842:	0f 11 83 e0 00 00 00 	movups %xmm0,0xe0(%rbx)
      _M_header._M_right = __from._M_header._M_right;
    3849:	48 89 93 f0 00 00 00 	mov    %rdx,0xf0(%rbx)
      _M_header._M_parent->_M_parent = &_M_header;
    3850:	4c 89 60 08          	mov    %r12,0x8(%rax)
      _M_node_count = __from._M_node_count;
    3854:	48 8b 44 24 28       	mov    0x28(%rsp),%rax
    3859:	48 89 83 f8 00 00 00 	mov    %rax,0xf8(%rbx)
    }
    3860:	48 8b 44 24 38       	mov    0x38(%rsp),%rax
    3865:	64 48 2b 04 25 28 00 	sub    %fs:0x28,%rax
    386c:	00 00 
    386e:	0f 85 c4 00 00 00    	jne    3938 <_ZN9MST_GraphC1Ei+0x338>
    3874:	48 83 c4 48          	add    $0x48,%rsp
    3878:	5b                   	pop    %rbx
    3879:	5d                   	pop    %rbp
    387a:	41 5c                	pop    %r12
    387c:	41 5d                	pop    %r13
    387e:	41 5e                	pop    %r14
    3880:	41 5f                	pop    %r15
    3882:	c3                   	ret
    3883:	0f 1f 44 00 00       	nopl   0x0(%rax,%rax,1)
	return __n != 0 ? _Tr::allocate(_M_impl, __n) : pointer();
    3888:	31 c0                	xor    %eax,%eax
	  _ForwardIterator __cur = __first;
    388a:	31 c9                	xor    %ecx,%ecx
    388c:	e9 74 fe ff ff       	jmp    3705 <_ZN9MST_GraphC1Ei+0x105>
    3891:	0f 1f 80 00 00 00 00 	nopl   0x0(%rax)
      _M_header._M_left = &_M_header;
    3898:	4c 89 a3 e8 00 00 00 	mov    %r12,0xe8(%rbx)
      _M_header._M_right = &_M_header;
    389f:	4c 89 a3 f0 00 00 00 	mov    %r12,0xf0(%rbx)
      _M_node_count = 0;
    38a6:	48 c7 83 f8 00 00 00 	movq   $0x0,0xf8(%rbx)
    38ad:	00 00 00 00 
    38b1:	eb ad                	jmp    3860 <_ZN9MST_GraphC1Ei+0x260>
	  __throw_length_error(
    38b3:	48 8b 44 24 38       	mov    0x38(%rsp),%rax
    38b8:	64 48 2b 04 25 28 00 	sub    %fs:0x28,%rax
    38bf:	00 00 
    38c1:	75 75                	jne    3938 <_ZN9MST_GraphC1Ei+0x338>
    38c3:	48 8d 3d 3e 37 00 00 	lea    0x373e(%rip),%rdi        # 7008 <_IO_stdin_used+0x8>
    38ca:	e8 c1 d8 ff ff       	call   1190 <_ZSt20__throw_length_errorPKc@plt>
      { _M_erase(_M_begin()); }
    38cf:	48 8b bb e0 00 00 00 	mov    0xe0(%rbx),%rdi
    38d6:	e8 e5 e0 ff ff       	call   19c0 <_ZNSt8_Rb_treeISt4pairIiiES0_IKS1_iESt10_Select1stIS3_ESt4lessIS1_ESaIS3_EE8_M_eraseEPSt13_Rb_tree_nodeIS3_E.isra.0>
class UnionFind {
    38db:	48 8d bb b0 00 00 00 	lea    0xb0(%rbx),%rdi
    38e2:	e8 b9 fa ff ff       	call   33a0 <_ZNSt6vectorIiSaIiEED1Ev>
    38e7:	4c 89 ef             	mov    %r13,%rdi
    38ea:	e8 b1 fa ff ff       	call   33a0 <_ZNSt6vectorIiSaIiEED1Ev>
    38ef:	48 8d bb 80 00 00 00 	lea    0x80(%rbx),%rdi
    38f6:	e8 a5 fa ff ff       	call   33a0 <_ZNSt6vectorIiSaIiEED1Ev>
	: _M_start(), _M_finish(), _M_end_of_storage()
    38fb:	48 8d 7b 68          	lea    0x68(%rbx),%rdi
    38ff:	e8 9c fa ff ff       	call   33a0 <_ZNSt6vectorIiSaIiEED1Ev>
    3904:	48 8d 7b 50          	lea    0x50(%rbx),%rdi
    3908:	e8 93 fa ff ff       	call   33a0 <_ZNSt6vectorIiSaIiEED1Ev>
    390d:	48 8d 7b 38          	lea    0x38(%rbx),%rdi
    3911:	e8 ba fc ff ff       	call   35d0 <_ZNSt6vectorISt4pairIiiESaIS1_EED1Ev>
    3916:	48 8d 7b 20          	lea    0x20(%rbx),%rdi
    391a:	e8 b1 fc ff ff       	call   35d0 <_ZNSt6vectorISt4pairIiiESaIS1_EED1Ev>
    391f:	48 8d 7b 08          	lea    0x8(%rbx),%rdi
    3923:	e8 38 fc ff ff       	call   3560 <_ZNSt6vectorIS_IiSaIiEESaIS1_EED1Ev>
    3928:	48 8b 44 24 38       	mov    0x38(%rsp),%rax
    392d:	64 48 2b 04 25 28 00 	sub    %fs:0x28,%rax
    3934:	00 00 
    3936:	74 17                	je     394f <_ZN9MST_GraphC1Ei+0x34f>
    3938:	e8 e3 d8 ff ff       	call   1220 <__stack_chk_fail@plt>
    393d:	f3 0f 1e fa          	endbr64
    3941:	48 89 c5             	mov    %rax,%rbp
    3944:	eb 89                	jmp    38cf <_ZN9MST_GraphC1Ei+0x2cf>
    3946:	f3 0f 1e fa          	endbr64
    394a:	48 89 c5             	mov    %rax,%rbp
    394d:	eb a0                	jmp    38ef <_ZN9MST_GraphC1Ei+0x2ef>
    394f:	48 89 ef             	mov    %rbp,%rdi
    3952:	e8 19 d9 ff ff       	call   1270 <_Unwind_Resume@plt>
    3957:	66 0f 1f 84 00 00 00 	nopw   0x0(%rax,%rax,1)
    395e:	00 00 

0000000000003960 <_ZNSt6vectorIS_IiSaIiEESaIS1_EE17_M_realloc_insertIJS1_EEEvN9__gnu_cxx17__normal_iteratorIPS1_S3_EEDpOT_>:
      vector<_Tp, _Alloc>::
    3960:	f3 0f 1e fa          	endbr64
      { return size_type(this->_M_impl._M_finish - this->_M_impl._M_start); }
    3964:	48 b9 ab aa aa aa aa 	movabs $0xaaaaaaaaaaaaaaab,%rcx
    396b:	aa aa aa 
    396e:	41 57                	push   %r15
    3970:	41 56                	push   %r14
    3972:	41 55                	push   %r13
    3974:	41 54                	push   %r12
    3976:	55                   	push   %rbp
    3977:	53                   	push   %rbx
    3978:	48 83 ec 18          	sub    $0x18,%rsp
    397c:	48 8b 6f 08          	mov    0x8(%rdi),%rbp
      size() const _GLIBCXX_NOEXCEPT
    3980:	4c 8b 2f             	mov    (%rdi),%r13
      { return size_type(this->_M_impl._M_finish - this->_M_impl._M_start); }
    3983:	48 89 e8             	mov    %rbp,%rax
    3986:	4c 29 e8             	sub    %r13,%rax
    3989:	48 c1 f8 03          	sar    $0x3,%rax
    398d:	48 0f af c1          	imul   %rcx,%rax
	if (max_size() - size() < __n)
    3991:	48 b9 55 55 55 55 55 	movabs $0x555555555555555,%rcx
    3998:	55 55 05 
    399b:	48 39 c8             	cmp    %rcx,%rax
    399e:	0f 84 90 01 00 00    	je     3b34 <_ZNSt6vectorIS_IiSaIiEESaIS1_EE17_M_realloc_insertIJS1_EEEvN9__gnu_cxx17__normal_iteratorIPS1_S3_EEDpOT_+0x1d4>
    { return __lhs.base() - __rhs.base(); }
    39a4:	48 89 f1             	mov    %rsi,%rcx
    39a7:	49 89 fc             	mov    %rdi,%r12
    39aa:	48 89 f3             	mov    %rsi,%rbx
    39ad:	4c 29 e9             	sub    %r13,%rcx
      if (__a < __b)
    39b0:	49 39 ed             	cmp    %rbp,%r13
    39b3:	0f 84 3f 01 00 00    	je     3af8 <_ZNSt6vectorIS_IiSaIiEESaIS1_EE17_M_realloc_insertIJS1_EEEvN9__gnu_cxx17__normal_iteratorIPS1_S3_EEDpOT_+0x198>
	const size_type __len = size() + (std::max)(size(), __n);
    39b9:	48 8d 34 00          	lea    (%rax,%rax,1),%rsi
	return (__len < size() || __len > max_size()) ? max_size() : __len;
    39bd:	48 39 c6             	cmp    %rax,%rsi
    39c0:	0f 82 fa 00 00 00    	jb     3ac0 <_ZNSt6vectorIS_IiSaIiEESaIS1_EE17_M_realloc_insertIJS1_EEEvN9__gnu_cxx17__normal_iteratorIPS1_S3_EEDpOT_+0x160>
	return __n != 0 ? _Tr::allocate(_M_impl, __n) : pointer();
    39c6:	48 85 f6             	test   %rsi,%rsi
    39c9:	0f 85 4a 01 00 00    	jne    3b19 <_ZNSt6vectorIS_IiSaIiEESaIS1_EE17_M_realloc_insertIJS1_EEEvN9__gnu_cxx17__normal_iteratorIPS1_S3_EEDpOT_+0x1b9>
    39cf:	41 b8 18 00 00 00    	mov    $0x18,%r8d
    39d5:	45 31 ff             	xor    %r15d,%r15d
    39d8:	45 31 f6             	xor    %r14d,%r14d
	  _Alloc_traits::construct(this->_M_impl,
    39db:	49 8d 04 0e          	lea    (%r14,%rcx,1),%rax
	: _M_start(__x._M_start), _M_finish(__x._M_finish),
    39df:	f3 0f 6f 1a          	movdqu (%rdx),%xmm3
	  _M_end_of_storage(__x._M_end_of_storage)
    39e3:	48 8b 4a 10          	mov    0x10(%rdx),%rcx
	{ __x._M_start = __x._M_finish = __x._M_end_of_storage = pointer(); }
    39e7:	66 0f ef c0          	pxor   %xmm0,%xmm0
    39eb:	48 c7 42 10 00 00 00 	movq   $0x0,0x10(%rdx)
    39f2:	00 
	  _M_end_of_storage(__x._M_end_of_storage)
    39f3:	48 89 48 10          	mov    %rcx,0x10(%rax)
	: _M_start(__x._M_start), _M_finish(__x._M_finish),
    39f7:	0f 11 18             	movups %xmm3,(%rax)
	{ __x._M_start = __x._M_finish = __x._M_end_of_storage = pointer(); }
    39fa:	0f 11 02             	movups %xmm0,(%rdx)
      for (; __first != __last; ++__first, (void)++__cur)
    39fd:	4c 39 eb             	cmp    %r13,%rbx
    3a00:	74 3b                	je     3a3d <_ZNSt6vectorIS_IiSaIiEESaIS1_EE17_M_realloc_insertIJS1_EEEvN9__gnu_cxx17__normal_iteratorIPS1_S3_EEDpOT_+0xdd>
    3a02:	4c 89 e8             	mov    %r13,%rax
      _ForwardIterator __cur = __result;
    3a05:	4c 89 f2             	mov    %r14,%rdx
    3a08:	0f 1f 84 00 00 00 00 	nopl   0x0(%rax,%rax,1)
    3a0f:	00 
	: _M_start(__x._M_start), _M_finish(__x._M_finish),
    3a10:	f3 0f 6f 08          	movdqu (%rax),%xmm1
	  _M_end_of_storage(__x._M_end_of_storage)
    3a14:	48 8b 48 10          	mov    0x10(%rax),%rcx
      for (; __first != __last; ++__first, (void)++__cur)
    3a18:	48 83 c0 18          	add    $0x18,%rax
    3a1c:	48 83 c2 18          	add    $0x18,%rdx
	: _M_start(__x._M_start), _M_finish(__x._M_finish),
    3a20:	0f 11 4a e8          	movups %xmm1,-0x18(%rdx)
	  _M_end_of_storage(__x._M_end_of_storage)
    3a24:	48 89 4a f8          	mov    %rcx,-0x8(%rdx)
    3a28:	48 39 c3             	cmp    %rax,%rbx
    3a2b:	75 e3                	jne    3a10 <_ZNSt6vectorIS_IiSaIiEESaIS1_EE17_M_realloc_insertIJS1_EEEvN9__gnu_cxx17__normal_iteratorIPS1_S3_EEDpOT_+0xb0>
	      ++__new_finish;
    3a2d:	48 8d 43 e8          	lea    -0x18(%rbx),%rax
    3a31:	4c 29 e8             	sub    %r13,%rax
    3a34:	48 83 e0 f8          	and    $0xfffffffffffffff8,%rax
    3a38:	4d 8d 44 06 30       	lea    0x30(%r14,%rax,1),%r8
    3a3d:	48 39 eb             	cmp    %rbp,%rbx
    3a40:	74 3b                	je     3a7d <_ZNSt6vectorIS_IiSaIiEESaIS1_EE17_M_realloc_insertIJS1_EEEvN9__gnu_cxx17__normal_iteratorIPS1_S3_EEDpOT_+0x11d>
    3a42:	48 89 d8             	mov    %rbx,%rax
      _ForwardIterator __cur = __result;
    3a45:	4c 89 c2             	mov    %r8,%rdx
    3a48:	0f 1f 84 00 00 00 00 	nopl   0x0(%rax,%rax,1)
    3a4f:	00 
	: _M_start(__x._M_start), _M_finish(__x._M_finish),
    3a50:	f3 0f 6f 10          	movdqu (%rax),%xmm2
	  _M_end_of_storage(__x._M_end_of_storage)
    3a54:	48 8b 48 10          	mov    0x10(%rax),%rcx
      for (; __first != __last; ++__first, (void)++__cur)
    3a58:	48 83 c0 18          	add    $0x18,%rax
    3a5c:	48 83 c2 18          	add    $0x18,%rdx
	: _M_start(__x._M_start), _M_finish(__x._M_finish),
    3a60:	0f 11 52 e8          	movups %xmm2,-0x18(%rdx)
	  _M_end_of_storage(__x._M_end_of_storage)
    3a64:	48 89 4a f8          	mov    %rcx,-0x8(%rdx)
    3a68:	48 39 c5             	cmp    %rax,%rbp
    3a6b:	75 e3                	jne    3a50 <_ZNSt6vectorIS_IiSaIiEESaIS1_EE17_M_realloc_insertIJS1_EEEvN9__gnu_cxx17__normal_iteratorIPS1_S3_EEDpOT_+0xf0>
    3a6d:	48 29 dd             	sub    %rbx,%rbp
    3a70:	48 8d 45 e8          	lea    -0x18(%rbp),%rax
    3a74:	48 c1 e8 03          	shr    $0x3,%rax
    3a78:	4d 8d 44 c0 18       	lea    0x18(%r8,%rax,8),%r8
	if (__p)
    3a7d:	4d 85 ed             	test   %r13,%r13
    3a80:	74 18                	je     3a9a <_ZNSt6vectorIS_IiSaIiEESaIS1_EE17_M_realloc_insertIJS1_EEEvN9__gnu_cxx17__normal_iteratorIPS1_S3_EEDpOT_+0x13a>
		    this->_M_impl._M_end_of_storage - __old_start);
    3a82:	49 8b 74 24 10       	mov    0x10(%r12),%rsi
    3a87:	4c 89 ef             	mov    %r13,%rdi
    3a8a:	4c 89 04 24          	mov    %r8,(%rsp)
    3a8e:	4c 29 ee             	sub    %r13,%rsi
    3a91:	e8 6a d7 ff ff       	call   1200 <_ZdlPvm@plt>
    3a96:	4c 8b 04 24          	mov    (%rsp),%r8
      this->_M_impl._M_start = __new_start;
    3a9a:	4d 89 34 24          	mov    %r14,(%r12)
      this->_M_impl._M_finish = __new_finish;
    3a9e:	4d 89 44 24 08       	mov    %r8,0x8(%r12)
      this->_M_impl._M_end_of_storage = __new_start + __len;
    3aa3:	4d 89 7c 24 10       	mov    %r15,0x10(%r12)
    }
    3aa8:	48 83 c4 18          	add    $0x18,%rsp
    3aac:	5b                   	pop    %rbx
    3aad:	5d                   	pop    %rbp
    3aae:	41 5c                	pop    %r12
    3ab0:	41 5d                	pop    %r13
    3ab2:	41 5e                	pop    %r14
    3ab4:	41 5f                	pop    %r15
    3ab6:	c3                   	ret
    3ab7:	66 0f 1f 84 00 00 00 	nopw   0x0(%rax,%rax,1)
    3abe:	00 00 
    3ac0:	49 bf f8 ff ff ff ff 	movabs $0x7ffffffffffffff8,%r15
    3ac7:	ff ff 7f 
	return static_cast<_Tp*>(_GLIBCXX_OPERATOR_NEW(__n * sizeof(_Tp)));
    3aca:	4c 89 ff             	mov    %r15,%rdi
    3acd:	48 89 54 24 08       	mov    %rdx,0x8(%rsp)
    3ad2:	48 89 0c 24          	mov    %rcx,(%rsp)
    3ad6:	e8 15 d7 ff ff       	call   11f0 <_Znwm@plt>
    3adb:	48 8b 0c 24          	mov    (%rsp),%rcx
    3adf:	48 8b 54 24 08       	mov    0x8(%rsp),%rdx
    3ae4:	49 89 c6             	mov    %rax,%r14
      this->_M_impl._M_end_of_storage = __new_start + __len;
    3ae7:	49 01 c7             	add    %rax,%r15
	      ++__new_finish;
    3aea:	4c 8d 40 18          	lea    0x18(%rax),%r8
    3aee:	e9 e8 fe ff ff       	jmp    39db <_ZNSt6vectorIS_IiSaIiEESaIS1_EE17_M_realloc_insertIJS1_EEEvN9__gnu_cxx17__normal_iteratorIPS1_S3_EEDpOT_+0x7b>
    3af3:	0f 1f 44 00 00       	nopl   0x0(%rax,%rax,1)
    3af8:	48 83 c0 01          	add    $0x1,%rax
    3afc:	72 c2                	jb     3ac0 <_ZNSt6vectorIS_IiSaIiEESaIS1_EE17_M_realloc_insertIJS1_EEEvN9__gnu_cxx17__normal_iteratorIPS1_S3_EEDpOT_+0x160>
	return (__len < size() || __len > max_size()) ? max_size() : __len;
    3afe:	48 be 55 55 55 55 55 	movabs $0x555555555555555,%rsi
    3b05:	55 55 05 
    3b08:	48 39 f0             	cmp    %rsi,%rax
    3b0b:	48 0f 47 c6          	cmova  %rsi,%rax
    3b0f:	4c 8d 3c 40          	lea    (%rax,%rax,2),%r15
    3b13:	49 c1 e7 03          	shl    $0x3,%r15
    3b17:	eb b1                	jmp    3aca <_ZNSt6vectorIS_IiSaIiEESaIS1_EE17_M_realloc_insertIJS1_EEEvN9__gnu_cxx17__normal_iteratorIPS1_S3_EEDpOT_+0x16a>
    3b19:	48 b8 55 55 55 55 55 	movabs $0x555555555555555,%rax
    3b20:	55 55 05 
    3b23:	48 39 c6             	cmp    %rax,%rsi
    3b26:	48 0f 47 f0          	cmova  %rax,%rsi
    3b2a:	4c 8d 3c 76          	lea    (%rsi,%rsi,2),%r15
    3b2e:	49 c1 e7 03          	shl    $0x3,%r15
    3b32:	eb 96                	jmp    3aca <_ZNSt6vectorIS_IiSaIiEESaIS1_EE17_M_realloc_insertIJS1_EEEvN9__gnu_cxx17__normal_iteratorIPS1_S3_EEDpOT_+0x16a>
	  __throw_length_error(__N(__s));
    3b34:	48 8d 3d fe 34 00 00 	lea    0x34fe(%rip),%rdi        # 7039 <_IO_stdin_used+0x39>
    3b3b:	e8 50 d6 ff ff       	call   1190 <_ZSt20__throw_length_errorPKc@plt>

0000000000003b40 <_ZNSt8_Rb_treeISt4pairIiiES0_IKS1_iESt10_Select1stIS3_ESt4lessIS1_ESaIS3_EE24_M_get_insert_unique_posERS2_>:
    _Rb_tree<_Key, _Val, _KeyOfValue, _Compare, _Alloc>::
    3b40:	f3 0f 1e fa          	endbr64
    3b44:	55                   	push   %rbp
    3b45:	48 89 f5             	mov    %rsi,%rbp
    3b48:	53                   	push   %rbx
    3b49:	48 83 ec 08          	sub    $0x8,%rsp
      { return static_cast<_Link_type>(this->_M_impl._M_header._M_parent); }
    3b4d:	48 8b 5f 10          	mov    0x10(%rdi),%rbx
      while (__x != 0)
    3b51:	48 85 db             	test   %rbx,%rbx
    3b54:	74 62                	je     3bb8 <_ZNSt8_Rb_treeISt4pairIiiES0_IKS1_iESt10_Select1stIS3_ESt4lessIS1_ESaIS3_EE24_M_get_insert_unique_posERS2_+0x78>
    3b56:	8b 0e                	mov    (%rsi),%ecx
    3b58:	8b 53 20             	mov    0x20(%rbx),%edx
    3b5b:	39 d1                	cmp    %edx,%ecx
    3b5d:	74 1c                	je     3b7b <_ZNSt8_Rb_treeISt4pairIiiES0_IKS1_iESt10_Select1stIS3_ESt4lessIS1_ESaIS3_EE24_M_get_insert_unique_posERS2_+0x3b>
    3b5f:	90                   	nop
    3b60:	7d 21                	jge    3b83 <_ZNSt8_Rb_treeISt4pairIiiES0_IKS1_iESt10_Select1stIS3_ESt4lessIS1_ESaIS3_EE24_M_get_insert_unique_posERS2_+0x43>
      { return static_cast<_Link_type>(__x->_M_left); }
    3b62:	48 8b 43 10          	mov    0x10(%rbx),%rax
    3b66:	41 b8 01 00 00 00    	mov    $0x1,%r8d
      while (__x != 0)
    3b6c:	48 85 c0             	test   %rax,%rax
    3b6f:	74 1e                	je     3b8f <_ZNSt8_Rb_treeISt4pairIiiES0_IKS1_iESt10_Select1stIS3_ESt4lessIS1_ESaIS3_EE24_M_get_insert_unique_posERS2_+0x4f>
    3b71:	48 89 c3             	mov    %rax,%rbx
    3b74:	8b 53 20             	mov    0x20(%rbx),%edx
    3b77:	39 d1                	cmp    %edx,%ecx
    3b79:	75 e5                	jne    3b60 <_ZNSt8_Rb_treeISt4pairIiiES0_IKS1_iESt10_Select1stIS3_ESt4lessIS1_ESaIS3_EE24_M_get_insert_unique_posERS2_+0x20>
    3b7b:	8b 43 24             	mov    0x24(%rbx),%eax
    3b7e:	39 45 04             	cmp    %eax,0x4(%rbp)
    3b81:	75 dd                	jne    3b60 <_ZNSt8_Rb_treeISt4pairIiiES0_IKS1_iESt10_Select1stIS3_ESt4lessIS1_ESaIS3_EE24_M_get_insert_unique_posERS2_+0x20>
      { return static_cast<_Link_type>(__x->_M_right); }
    3b83:	48 8b 43 18          	mov    0x18(%rbx),%rax
    3b87:	45 31 c0             	xor    %r8d,%r8d
      while (__x != 0)
    3b8a:	48 85 c0             	test   %rax,%rax
    3b8d:	75 e2                	jne    3b71 <_ZNSt8_Rb_treeISt4pairIiiES0_IKS1_iESt10_Select1stIS3_ESt4lessIS1_ESaIS3_EE24_M_get_insert_unique_posERS2_+0x31>
      _Rb_tree_iterator(_Base_ptr __x) _GLIBCXX_NOEXCEPT
    3b8f:	48 89 de             	mov    %rbx,%rsi
      if (__comp)
    3b92:	45 84 c0             	test   %r8b,%r8b
    3b95:	75 25                	jne    3bbc <_ZNSt8_Rb_treeISt4pairIiiES0_IKS1_iESt10_Select1stIS3_ESt4lessIS1_ESaIS3_EE24_M_get_insert_unique_posERS2_+0x7c>
    3b97:	39 d1                	cmp    %edx,%ecx
    3b99:	74 3f                	je     3bda <_ZNSt8_Rb_treeISt4pairIiiES0_IKS1_iESt10_Select1stIS3_ESt4lessIS1_ESaIS3_EE24_M_get_insert_unique_posERS2_+0x9a>
    3b9b:	b8 00 00 00 00       	mov    $0x0,%eax
    3ba0:	48 0f 4e f0          	cmovle %rax,%rsi
    3ba4:	48 0f 4f d8          	cmovg  %rax,%rbx
    }
    3ba8:	48 83 c4 08          	add    $0x8,%rsp
    3bac:	48 89 d8             	mov    %rbx,%rax
    3baf:	48 89 f2             	mov    %rsi,%rdx
    3bb2:	5b                   	pop    %rbx
    3bb3:	5d                   	pop    %rbp
    3bb4:	c3                   	ret
    3bb5:	0f 1f 00             	nopl   (%rax)
      { return &this->_M_impl._M_header; }
    3bb8:	48 8d 5f 08          	lea    0x8(%rdi),%rbx
	  if (__j == begin())
    3bbc:	48 39 5f 18          	cmp    %rbx,0x18(%rdi)
    3bc0:	74 3e                	je     3c00 <_ZNSt8_Rb_treeISt4pairIiiES0_IKS1_iESt10_Select1stIS3_ESt4lessIS1_ESaIS3_EE24_M_get_insert_unique_posERS2_+0xc0>
	_M_node = _Rb_tree_decrement(_M_node);
    3bc2:	48 89 df             	mov    %rbx,%rdi
    3bc5:	e8 46 d6 ff ff       	call   1210 <_ZSt18_Rb_tree_decrementPSt18_Rb_tree_node_base@plt>
    3bca:	8b 4d 00             	mov    0x0(%rbp),%ecx
	return *this;
    3bcd:	48 89 de             	mov    %rbx,%rsi
    3bd0:	8b 50 20             	mov    0x20(%rax),%edx
	_M_node = _Rb_tree_decrement(_M_node);
    3bd3:	48 89 c3             	mov    %rax,%rbx
    3bd6:	39 d1                	cmp    %edx,%ecx
    3bd8:	75 c1                	jne    3b9b <_ZNSt8_Rb_treeISt4pairIiiES0_IKS1_iESt10_Select1stIS3_ESt4lessIS1_ESaIS3_EE24_M_get_insert_unique_posERS2_+0x5b>
    3bda:	8b 45 04             	mov    0x4(%rbp),%eax
    3bdd:	39 43 24             	cmp    %eax,0x24(%rbx)
    3be0:	74 36                	je     3c18 <_ZNSt8_Rb_treeISt4pairIiiES0_IKS1_iESt10_Select1stIS3_ESt4lessIS1_ESaIS3_EE24_M_get_insert_unique_posERS2_+0xd8>
    3be2:	b8 00 00 00 00       	mov    $0x0,%eax
    3be7:	48 0f 4d f0          	cmovge %rax,%rsi
    3beb:	48 0f 4c d8          	cmovl  %rax,%rbx
    }
    3bef:	48 83 c4 08          	add    $0x8,%rsp
    3bf3:	48 89 d8             	mov    %rbx,%rax
    3bf6:	48 89 f2             	mov    %rsi,%rdx
    3bf9:	5b                   	pop    %rbx
    3bfa:	5d                   	pop    %rbp
    3bfb:	c3                   	ret
    3bfc:	0f 1f 40 00          	nopl   0x0(%rax)
    3c00:	48 89 de             	mov    %rbx,%rsi
    3c03:	48 83 c4 08          	add    $0x8,%rsp
    3c07:	31 db                	xor    %ebx,%ebx
    3c09:	48 89 d8             	mov    %rbx,%rax
    3c0c:	48 89 f2             	mov    %rsi,%rdx
    3c0f:	5b                   	pop    %rbx
    3c10:	5d                   	pop    %rbp
    3c11:	c3                   	ret
    3c12:	66 0f 1f 44 00 00    	nopw   0x0(%rax,%rax,1)
    3c18:	48 83 c4 08          	add    $0x8,%rsp
    3c1c:	31 f6                	xor    %esi,%esi
    3c1e:	48 89 d8             	mov    %rbx,%rax
    3c21:	48 89 f2             	mov    %rsi,%rdx
    3c24:	5b                   	pop    %rbx
    3c25:	5d                   	pop    %rbp
    3c26:	c3                   	ret
    3c27:	66 0f 1f 84 00 00 00 	nopw   0x0(%rax,%rax,1)
    3c2e:	00 00 

0000000000003c30 <_ZNSt8_Rb_treeISt4pairIiiES0_IKS1_iESt10_Select1stIS3_ESt4lessIS1_ESaIS3_EE29_M_get_insert_hint_unique_posESt23_Rb_tree_const_iteratorIS3_ERS2_>:
    _Rb_tree<_Key, _Val, _KeyOfValue, _Compare, _Alloc>::
    3c30:	f3 0f 1e fa          	endbr64
    3c34:	41 55                	push   %r13
      { return &this->_M_impl._M_header; }
    3c36:	48 8d 47 08          	lea    0x8(%rdi),%rax
    _Rb_tree<_Key, _Val, _KeyOfValue, _Compare, _Alloc>::
    3c3a:	41 54                	push   %r12
    3c3c:	49 89 d4             	mov    %rdx,%r12
    3c3f:	55                   	push   %rbp
    3c40:	48 89 fd             	mov    %rdi,%rbp
    3c43:	53                   	push   %rbx
    3c44:	48 83 ec 08          	sub    $0x8,%rsp
      if (__pos._M_node == _M_end())
    3c48:	48 39 c6             	cmp    %rax,%rsi
    3c4b:	74 63                	je     3cb0 <_ZNSt8_Rb_treeISt4pairIiiES0_IKS1_iESt10_Select1stIS3_ESt4lessIS1_ESaIS3_EE29_M_get_insert_hint_unique_posESt23_Rb_tree_const_iteratorIS3_ERS2_+0x80>
    3c4d:	44 8b 2a             	mov    (%rdx),%r13d
    3c50:	48 89 f3             	mov    %rsi,%rbx
    3c53:	44 3b 6e 20          	cmp    0x20(%rsi),%r13d
    3c57:	74 3f                	je     3c98 <_ZNSt8_Rb_treeISt4pairIiiES0_IKS1_iESt10_Select1stIS3_ESt4lessIS1_ESaIS3_EE29_M_get_insert_hint_unique_posESt23_Rb_tree_const_iteratorIS3_ERS2_+0x68>
    3c59:	0f 8d a1 00 00 00    	jge    3d00 <_ZNSt8_Rb_treeISt4pairIiiES0_IKS1_iESt10_Select1stIS3_ESt4lessIS1_ESaIS3_EE29_M_get_insert_hint_unique_posESt23_Rb_tree_const_iteratorIS3_ERS2_+0xd0>
	    return _Res(_M_leftmost(), _M_leftmost());
    3c5f:	48 89 d8             	mov    %rbx,%rax
    3c62:	48 89 da             	mov    %rbx,%rdx
	  if (__pos._M_node == _M_leftmost()) // begin()
    3c65:	48 39 5d 18          	cmp    %rbx,0x18(%rbp)
    3c69:	74 3a                	je     3ca5 <_ZNSt8_Rb_treeISt4pairIiiES0_IKS1_iESt10_Select1stIS3_ESt4lessIS1_ESaIS3_EE29_M_get_insert_hint_unique_posESt23_Rb_tree_const_iteratorIS3_ERS2_+0x75>
	_M_node = _Rb_tree_decrement(_M_node);
    3c6b:	48 89 df             	mov    %rbx,%rdi
    3c6e:	e8 9d d5 ff ff       	call   1210 <_ZSt18_Rb_tree_decrementPSt18_Rb_tree_node_base@plt>
    3c73:	48 89 c1             	mov    %rax,%rcx
    3c76:	44 3b 68 20          	cmp    0x20(%rax),%r13d
    3c7a:	74 5c                	je     3cd8 <_ZNSt8_Rb_treeISt4pairIiiES0_IKS1_iESt10_Select1stIS3_ESt4lessIS1_ESaIS3_EE29_M_get_insert_hint_unique_posESt23_Rb_tree_const_iteratorIS3_ERS2_+0xa8>
    3c7c:	7e 66                	jle    3ce4 <_ZNSt8_Rb_treeISt4pairIiiES0_IKS1_iESt10_Select1stIS3_ESt4lessIS1_ESaIS3_EE29_M_get_insert_hint_unique_posESt23_Rb_tree_const_iteratorIS3_ERS2_+0xb4>
		return _Res(0, __before._M_node);
    3c7e:	31 d2                	xor    %edx,%edx
    3c80:	48 83 79 18 00       	cmpq   $0x0,0x18(%rcx)
    3c85:	48 89 d0             	mov    %rdx,%rax
    3c88:	48 0f 45 c3          	cmovne %rbx,%rax
    3c8c:	48 0f 44 d9          	cmove  %rcx,%rbx
    3c90:	48 89 da             	mov    %rbx,%rdx
    3c93:	eb 10                	jmp    3ca5 <_ZNSt8_Rb_treeISt4pairIiiES0_IKS1_iESt10_Select1stIS3_ESt4lessIS1_ESaIS3_EE29_M_get_insert_hint_unique_posESt23_Rb_tree_const_iteratorIS3_ERS2_+0x75>
    3c95:	0f 1f 00             	nopl   (%rax)
    3c98:	8b 46 24             	mov    0x24(%rsi),%eax
    3c9b:	39 42 04             	cmp    %eax,0x4(%rdx)
    3c9e:	75 b9                	jne    3c59 <_ZNSt8_Rb_treeISt4pairIiiES0_IKS1_iESt10_Select1stIS3_ESt4lessIS1_ESaIS3_EE29_M_get_insert_hint_unique_posESt23_Rb_tree_const_iteratorIS3_ERS2_+0x29>
	return _Res(__pos._M_node, 0);
    3ca0:	48 89 f0             	mov    %rsi,%rax
    3ca3:	31 d2                	xor    %edx,%edx
    }
    3ca5:	48 83 c4 08          	add    $0x8,%rsp
    3ca9:	5b                   	pop    %rbx
    3caa:	5d                   	pop    %rbp
    3cab:	41 5c                	pop    %r12
    3cad:	41 5d                	pop    %r13
    3caf:	c3                   	ret
	      && _M_impl._M_key_compare(_S_key(_M_rightmost()), __k))
    3cb0:	48 83 7f 28 00       	cmpq   $0x0,0x28(%rdi)
    3cb5:	74 2d                	je     3ce4 <_ZNSt8_Rb_treeISt4pairIiiES0_IKS1_iESt10_Select1stIS3_ESt4lessIS1_ESaIS3_EE29_M_get_insert_hint_unique_posESt23_Rb_tree_const_iteratorIS3_ERS2_+0xb4>
    3cb7:	48 8b 5f 20          	mov    0x20(%rdi),%rbx
    3cbb:	8b 02                	mov    (%rdx),%eax
    3cbd:	39 43 20             	cmp    %eax,0x20(%rbx)
    3cc0:	74 76                	je     3d38 <_ZNSt8_Rb_treeISt4pairIiiES0_IKS1_iESt10_Select1stIS3_ESt4lessIS1_ESaIS3_EE29_M_get_insert_hint_unique_posESt23_Rb_tree_const_iteratorIS3_ERS2_+0x108>
    3cc2:	7d 20                	jge    3ce4 <_ZNSt8_Rb_treeISt4pairIiiES0_IKS1_iESt10_Select1stIS3_ESt4lessIS1_ESaIS3_EE29_M_get_insert_hint_unique_posESt23_Rb_tree_const_iteratorIS3_ERS2_+0xb4>
    }
    3cc4:	48 83 c4 08          	add    $0x8,%rsp
	    return _Res(0, _M_rightmost());
    3cc8:	48 89 da             	mov    %rbx,%rdx
    3ccb:	31 c0                	xor    %eax,%eax
    }
    3ccd:	5b                   	pop    %rbx
    3cce:	5d                   	pop    %rbp
    3ccf:	41 5c                	pop    %r12
    3cd1:	41 5d                	pop    %r13
    3cd3:	c3                   	ret
    3cd4:	0f 1f 40 00          	nopl   0x0(%rax)
    3cd8:	41 8b 44 24 04       	mov    0x4(%r12),%eax
    3cdd:	39 41 24             	cmp    %eax,0x24(%rcx)
    3ce0:	74 02                	je     3ce4 <_ZNSt8_Rb_treeISt4pairIiiES0_IKS1_iESt10_Select1stIS3_ESt4lessIS1_ESaIS3_EE29_M_get_insert_hint_unique_posESt23_Rb_tree_const_iteratorIS3_ERS2_+0xb4>
    3ce2:	7c 9a                	jl     3c7e <_ZNSt8_Rb_treeISt4pairIiiES0_IKS1_iESt10_Select1stIS3_ESt4lessIS1_ESaIS3_EE29_M_get_insert_hint_unique_posESt23_Rb_tree_const_iteratorIS3_ERS2_+0x4e>
    3ce4:	48 83 c4 08          	add    $0x8,%rsp
	    return _M_get_insert_unique_pos(__k);
    3ce8:	4c 89 e6             	mov    %r12,%rsi
    3ceb:	48 89 ef             	mov    %rbp,%rdi
    }
    3cee:	5b                   	pop    %rbx
    3cef:	5d                   	pop    %rbp
    3cf0:	41 5c                	pop    %r12
    3cf2:	41 5d                	pop    %r13
	    return _M_get_insert_unique_pos(__k);
    3cf4:	e9 47 fe ff ff       	jmp    3b40 <_ZNSt8_Rb_treeISt4pairIiiES0_IKS1_iESt10_Select1stIS3_ESt4lessIS1_ESaIS3_EE24_M_get_insert_unique_posERS2_>
    3cf9:	0f 1f 80 00 00 00 00 	nopl   0x0(%rax)
	  if (__pos._M_node == _M_rightmost())
    3d00:	48 39 5d 20          	cmp    %rbx,0x20(%rbp)
    3d04:	74 be                	je     3cc4 <_ZNSt8_Rb_treeISt4pairIiiES0_IKS1_iESt10_Select1stIS3_ESt4lessIS1_ESaIS3_EE29_M_get_insert_hint_unique_posESt23_Rb_tree_const_iteratorIS3_ERS2_+0x94>
	_M_node = _Rb_tree_increment(_M_node);
    3d06:	48 89 df             	mov    %rbx,%rdi
    3d09:	e8 c2 d4 ff ff       	call   11d0 <_ZSt18_Rb_tree_incrementPSt18_Rb_tree_node_base@plt>
    3d0e:	48 89 c1             	mov    %rax,%rcx
    3d11:	44 3b 68 20          	cmp    0x20(%rax),%r13d
    3d15:	74 31                	je     3d48 <_ZNSt8_Rb_treeISt4pairIiiES0_IKS1_iESt10_Select1stIS3_ESt4lessIS1_ESaIS3_EE29_M_get_insert_hint_unique_posESt23_Rb_tree_const_iteratorIS3_ERS2_+0x118>
    3d17:	7d cb                	jge    3ce4 <_ZNSt8_Rb_treeISt4pairIiiES0_IKS1_iESt10_Select1stIS3_ESt4lessIS1_ESaIS3_EE29_M_get_insert_hint_unique_posESt23_Rb_tree_const_iteratorIS3_ERS2_+0xb4>
		return _Res(0, __pos._M_node);
    3d19:	31 d2                	xor    %edx,%edx
    3d1b:	48 83 7b 18 00       	cmpq   $0x0,0x18(%rbx)
    3d20:	48 89 d0             	mov    %rdx,%rax
    3d23:	48 89 da             	mov    %rbx,%rdx
    3d26:	48 0f 45 c1          	cmovne %rcx,%rax
    3d2a:	48 0f 45 d1          	cmovne %rcx,%rdx
    3d2e:	e9 72 ff ff ff       	jmp    3ca5 <_ZNSt8_Rb_treeISt4pairIiiES0_IKS1_iESt10_Select1stIS3_ESt4lessIS1_ESaIS3_EE29_M_get_insert_hint_unique_posESt23_Rb_tree_const_iteratorIS3_ERS2_+0x75>
    3d33:	0f 1f 44 00 00       	nopl   0x0(%rax,%rax,1)
    3d38:	8b 42 04             	mov    0x4(%rdx),%eax
    3d3b:	39 43 24             	cmp    %eax,0x24(%rbx)
    3d3e:	75 82                	jne    3cc2 <_ZNSt8_Rb_treeISt4pairIiiES0_IKS1_iESt10_Select1stIS3_ESt4lessIS1_ESaIS3_EE29_M_get_insert_hint_unique_posESt23_Rb_tree_const_iteratorIS3_ERS2_+0x92>
    3d40:	eb a2                	jmp    3ce4 <_ZNSt8_Rb_treeISt4pairIiiES0_IKS1_iESt10_Select1stIS3_ESt4lessIS1_ESaIS3_EE29_M_get_insert_hint_unique_posESt23_Rb_tree_const_iteratorIS3_ERS2_+0xb4>
    3d42:	66 0f 1f 44 00 00    	nopw   0x0(%rax,%rax,1)
    3d48:	8b 40 24             	mov    0x24(%rax),%eax
    3d4b:	41 39 44 24 04       	cmp    %eax,0x4(%r12)
    3d50:	75 c5                	jne    3d17 <_ZNSt8_Rb_treeISt4pairIiiES0_IKS1_iESt10_Select1stIS3_ESt4lessIS1_ESaIS3_EE29_M_get_insert_hint_unique_posESt23_Rb_tree_const_iteratorIS3_ERS2_+0xe7>
    3d52:	eb 90                	jmp    3ce4 <_ZNSt8_Rb_treeISt4pairIiiES0_IKS1_iESt10_Select1stIS3_ESt4lessIS1_ESaIS3_EE29_M_get_insert_hint_unique_posESt23_Rb_tree_const_iteratorIS3_ERS2_+0xb4>
    3d54:	66 2e 0f 1f 84 00 00 	cs nopw 0x0(%rax,%rax,1)
    3d5b:	00 00 00 
    3d5e:	66 90                	xchg   %ax,%ax

0000000000003d60 <_ZNSt8_Rb_treeISt4pairIiiES0_IKS1_iESt10_Select1stIS3_ESt4lessIS1_ESaIS3_EE22_M_emplace_hint_uniqueIJRKSt21piecewise_construct_tSt5tupleIJRS2_EESE_IJEEEEESt17_Rb_tree_iteratorIS3_ESt23_Rb_tree_const_iteratorIS3_EDpOT_.isra.0>:
      _Rb_tree<_Key, _Val, _KeyOfValue, _Compare, _Alloc>::
    3d60:	41 55                	push   %r13
    3d62:	49 89 d5             	mov    %rdx,%r13
    3d65:	41 54                	push   %r12
    3d67:	49 89 f4             	mov    %rsi,%r12
    3d6a:	55                   	push   %rbp
    3d6b:	48 89 fd             	mov    %rdi,%rbp
    3d6e:	bf 30 00 00 00       	mov    $0x30,%edi
    3d73:	53                   	push   %rbx
    3d74:	48 83 ec 08          	sub    $0x8,%rsp
    3d78:	e8 73 d4 ff ff       	call   11f0 <_Znwm@plt>
	auto __res = _M_get_insert_hint_unique_pos(__pos, __z._M_key());
    3d7d:	4c 89 e6             	mov    %r12,%rsi
    3d80:	48 89 ef             	mov    %rbp,%rdi
    3d83:	48 89 c3             	mov    %rax,%rbx
    3d86:	49 8b 45 00          	mov    0x0(%r13),%rax
	second(std::forward<_Args2>(std::get<_Indexes2>(__tuple2))...)
    3d8a:	c7 43 28 00 00 00 00 	movl   $0x0,0x28(%rbx)
    3d91:	48 8d 53 20          	lea    0x20(%rbx),%rdx
      : first(std::forward<_Args1>(std::get<_Indexes1>(__tuple1))...),
    3d95:	48 8b 00             	mov    (%rax),%rax
    3d98:	48 89 43 20          	mov    %rax,0x20(%rbx)
    3d9c:	e8 8f fe ff ff       	call   3c30 <_ZNSt8_Rb_treeISt4pairIiiES0_IKS1_iESt10_Select1stIS3_ESt4lessIS1_ESaIS3_EE29_M_get_insert_hint_unique_posESt23_Rb_tree_const_iteratorIS3_ERS2_>
	if (__res.second)
    3da1:	48 85 d2             	test   %rdx,%rdx
    3da4:	74 32                	je     3dd8 <_ZNSt8_Rb_treeISt4pairIiiES0_IKS1_iESt10_Select1stIS3_ESt4lessIS1_ESaIS3_EE22_M_emplace_hint_uniqueIJRKSt21piecewise_construct_tSt5tupleIJRS2_EESE_IJEEEEESt17_Rb_tree_iteratorIS3_ESt23_Rb_tree_const_iteratorIS3_EDpOT_.isra.0+0x78>
    _Rb_tree<_Key, _Val, _KeyOfValue, _Compare, _Alloc>::
    3da6:	bf 01 00 00 00       	mov    $0x1,%edi
    3dab:	48 8d 4d 08          	lea    0x8(%rbp),%rcx
			    || _M_impl._M_key_compare(_S_key(__z),
    3daf:	48 85 c0             	test   %rax,%rax
    3db2:	74 4c                	je     3e00 <_ZNSt8_Rb_treeISt4pairIiiES0_IKS1_iESt10_Select1stIS3_ESt4lessIS1_ESaIS3_EE22_M_emplace_hint_uniqueIJRKSt21piecewise_construct_tSt5tupleIJRS2_EESE_IJEEEEESt17_Rb_tree_iteratorIS3_ESt23_Rb_tree_const_iteratorIS3_EDpOT_.isra.0+0xa0>
      _Rb_tree_insert_and_rebalance(__insert_left, __z, __p,
    3db4:	48 89 de             	mov    %rbx,%rsi
    3db7:	e8 b4 d3 ff ff       	call   1170 <_ZSt29_Rb_tree_insert_and_rebalancebPSt18_Rb_tree_node_baseS0_RS_@plt>
      ++_M_impl._M_node_count;
    3dbc:	48 83 45 28 01       	addq   $0x1,0x28(%rbp)
      }
    3dc1:	48 83 c4 08          	add    $0x8,%rsp
    3dc5:	48 89 dd             	mov    %rbx,%rbp
    3dc8:	48 89 e8             	mov    %rbp,%rax
    3dcb:	5b                   	pop    %rbx
    3dcc:	5d                   	pop    %rbp
    3dcd:	41 5c                	pop    %r12
    3dcf:	41 5d                	pop    %r13
    3dd1:	c3                   	ret
    3dd2:	66 0f 1f 44 00 00    	nopw   0x0(%rax,%rax,1)
	_GLIBCXX_OPERATOR_DELETE(_GLIBCXX_SIZED_DEALLOC(__p, __n));
    3dd8:	48 89 df             	mov    %rbx,%rdi
    3ddb:	be 30 00 00 00       	mov    $0x30,%esi
	return iterator(__res.first);
    3de0:	48 89 c5             	mov    %rax,%rbp
    3de3:	e8 18 d4 ff ff       	call   1200 <_ZdlPvm@plt>
      }
    3de8:	48 83 c4 08          	add    $0x8,%rsp
    3dec:	48 89 e8             	mov    %rbp,%rax
    3def:	5b                   	pop    %rbx
    3df0:	5d                   	pop    %rbp
    3df1:	41 5c                	pop    %r12
    3df3:	41 5d                	pop    %r13
    3df5:	c3                   	ret
    3df6:	66 2e 0f 1f 84 00 00 	cs nopw 0x0(%rax,%rax,1)
    3dfd:	00 00 00 
      bool __insert_left = (__x != 0 || __p == _M_end()
    3e00:	48 39 ca             	cmp    %rcx,%rdx
    3e03:	74 af                	je     3db4 <_ZNSt8_Rb_treeISt4pairIiiES0_IKS1_iESt10_Select1stIS3_ESt4lessIS1_ESaIS3_EE22_M_emplace_hint_uniqueIJRKSt21piecewise_construct_tSt5tupleIJRS2_EESE_IJEEEEESt17_Rb_tree_iteratorIS3_ESt23_Rb_tree_const_iteratorIS3_EDpOT_.isra.0+0x54>
    3e05:	8b 42 20             	mov    0x20(%rdx),%eax
    3e08:	39 43 20             	cmp    %eax,0x20(%rbx)
    3e0b:	74 13                	je     3e20 <_ZNSt8_Rb_treeISt4pairIiiES0_IKS1_iESt10_Select1stIS3_ESt4lessIS1_ESaIS3_EE22_M_emplace_hint_uniqueIJRKSt21piecewise_construct_tSt5tupleIJRS2_EESE_IJEEEEESt17_Rb_tree_iteratorIS3_ESt23_Rb_tree_const_iteratorIS3_EDpOT_.isra.0+0xc0>
    3e0d:	40 0f 9c c7          	setl   %dil
    3e11:	40 0f b6 ff          	movzbl %dil,%edi
    3e15:	eb 9d                	jmp    3db4 <_ZNSt8_Rb_treeISt4pairIiiES0_IKS1_iESt10_Select1stIS3_ESt4lessIS1_ESaIS3_EE22_M_emplace_hint_uniqueIJRKSt21piecewise_construct_tSt5tupleIJRS2_EESE_IJEEEEESt17_Rb_tree_iteratorIS3_ESt23_Rb_tree_const_iteratorIS3_EDpOT_.isra.0+0x54>
    3e17:	66 0f 1f 84 00 00 00 	nopw   0x0(%rax,%rax,1)
    3e1e:	00 00 
    3e20:	8b 42 24             	mov    0x24(%rdx),%eax
    3e23:	31 ff                	xor    %edi,%edi
    3e25:	39 43 24             	cmp    %eax,0x24(%rbx)
    3e28:	75 e3                	jne    3e0d <_ZNSt8_Rb_treeISt4pairIiiES0_IKS1_iESt10_Select1stIS3_ESt4lessIS1_ESaIS3_EE22_M_emplace_hint_uniqueIJRKSt21piecewise_construct_tSt5tupleIJRS2_EESE_IJEEEEESt17_Rb_tree_iteratorIS3_ESt23_Rb_tree_const_iteratorIS3_EDpOT_.isra.0+0xad>
    3e2a:	eb 88                	jmp    3db4 <_ZNSt8_Rb_treeISt4pairIiiES0_IKS1_iESt10_Select1stIS3_ESt4lessIS1_ESaIS3_EE22_M_emplace_hint_uniqueIJRKSt21piecewise_construct_tSt5tupleIJRS2_EESE_IJEEEEESt17_Rb_tree_iteratorIS3_ESt23_Rb_tree_const_iteratorIS3_EDpOT_.isra.0+0x54>
    3e2c:	0f 1f 40 00          	nopl   0x0(%rax)

0000000000003e30 <_ZN9MST_Graph10path_labelEiiiRSt6vectorIiSaIiEE>:
    void path_label(int s, int t, int e, vector<int> &rep) {
    3e30:	f3 0f 1e fa          	endbr64
    3e34:	41 57                	push   %r15
        if (in[s] < in[t] && in[t] < out[s]) return;
    3e36:	48 63 d2             	movslq %edx,%rdx
    void path_label(int s, int t, int e, vector<int> &rep) {
    3e39:	41 56                	push   %r14
    3e3b:	41 55                	push   %r13
    3e3d:	49 89 fd             	mov    %rdi,%r13
    3e40:	41 54                	push   %r12
    3e42:	4c 63 e6             	movslq %esi,%r12
    3e45:	55                   	push   %rbp
    3e46:	53                   	push   %rbx
    3e47:	4c 89 e3             	mov    %r12,%rbx
    3e4a:	48 83 ec 78          	sub    $0x78,%rsp
    3e4e:	89 4c 24 24          	mov    %ecx,0x24(%rsp)
    3e52:	4c 89 44 24 28       	mov    %r8,0x28(%rsp)
	return *(this->_M_impl._M_start + __n);
    3e57:	64 48 8b 04 25 28 00 	mov    %fs:0x28,%rax
    3e5e:	00 00 
    3e60:	48 89 44 24 68       	mov    %rax,0x68(%rsp)
    3e65:	48 8b 47 68          	mov    0x68(%rdi),%rax
        if (in[s] < in[t] && in[t] < out[s]) return;
    3e69:	42 8b 34 a0          	mov    (%rax,%r12,4),%esi
    3e6d:	8b 0c 90             	mov    (%rax,%rdx,4),%ecx
    3e70:	48 8b 87 80 00 00 00 	mov    0x80(%rdi),%rax
    3e77:	39 ce                	cmp    %ecx,%esi
    3e79:	7c 25                	jl     3ea0 <_ZN9MST_Graph10path_labelEiiiRSt6vectorIiSaIiEE+0x70>
        if (in[t] < in[s] && in[s] < out[t]) {
    3e7b:	44 8b 1c 90          	mov    (%rax,%rdx,4),%r11d
    3e7f:	0f 8e 3b 03 00 00    	jle    41c0 <_ZN9MST_Graph10path_labelEiiiRSt6vectorIiSaIiEE+0x390>
    3e85:	44 39 de             	cmp    %r11d,%esi
    3e88:	0f 8d 32 03 00 00    	jge    41c0 <_ZN9MST_Graph10path_labelEiiiRSt6vectorIiSaIiEE+0x390>
            k_1 = in[t];
    3e8e:	41 89 cb             	mov    %ecx,%r11d
            plan = 0;
    3e91:	c7 44 24 20 00 00 00 	movl   $0x0,0x20(%rsp)
    3e98:	00 
            k_2 = in[s];
    3e99:	89 f1                	mov    %esi,%ecx
    3e9b:	eb 21                	jmp    3ebe <_ZN9MST_Graph10path_labelEiiiRSt6vectorIiSaIiEE+0x8e>
    3e9d:	0f 1f 00             	nopl   (%rax)
        if (in[s] < in[t] && in[t] < out[s]) return;
    3ea0:	46 8b 1c a0          	mov    (%rax,%r12,4),%r11d
                plan = 1;
    3ea4:	c7 44 24 20 01 00 00 	movl   $0x1,0x20(%rsp)
    3eab:	00 
        if (in[s] < in[t] && in[t] < out[s]) return;
    3eac:	44 39 d9             	cmp    %r11d,%ecx
    3eaf:	0f 8c c4 01 00 00    	jl     4079 <_ZN9MST_Graph10path_labelEiiiRSt6vectorIiSaIiEE+0x249>
        while (k_1 < k_2) {
    3eb5:	41 39 cb             	cmp    %ecx,%r11d
    3eb8:	0f 8d bb 01 00 00    	jge    4079 <_ZN9MST_Graph10path_labelEiiiRSt6vectorIiSaIiEE+0x249>
    3ebe:	49 8d 85 98 00 00 00 	lea    0x98(%r13),%rax
    3ec5:	48 89 44 24 18       	mov    %rax,0x18(%rsp)
      { return &this->_M_impl._M_header; }
    3eca:	49 8d 85 d8 00 00 00 	lea    0xd8(%r13),%rax
    3ed1:	48 89 44 24 10       	mov    %rax,0x10(%rsp)
    3ed6:	66 2e 0f 1f 84 00 00 	cs nopw 0x0(%rax,%rax,1)
    3edd:	00 00 00 
    3ee0:	49 8b ad 98 00 00 00 	mov    0x98(%r13),%rbp
    3ee7:	4e 8d 3c a5 00 00 00 	lea    0x0(,%r12,4),%r15
    3eee:	00 
    3eef:	4e 8d 74 3d 00       	lea    0x0(%rbp,%r15,1),%r14
		if (parent[u] == u) {
    3ef4:	41 8b 06             	mov    (%r14),%eax
    3ef7:	39 d8                	cmp    %ebx,%eax
    3ef9:	0f 84 a1 01 00 00    	je     40a0 <_ZN9MST_Graph10path_labelEiiiRSt6vectorIiSaIiEE+0x270>
    3eff:	48 63 f8             	movslq %eax,%rdi
    3f02:	48 8d 54 bd 00       	lea    0x0(%rbp,%rdi,4),%rdx
    3f07:	8b 32                	mov    (%rdx),%esi
    3f09:	39 f0                	cmp    %esi,%eax
    3f0b:	0f 84 9f 02 00 00    	je     41b0 <_ZN9MST_Graph10path_labelEiiiRSt6vectorIiSaIiEE+0x380>
    3f11:	48 63 c6             	movslq %esi,%rax
    3f14:	4c 8d 44 85 00       	lea    0x0(%rbp,%rax,4),%r8
    3f19:	41 8b 00             	mov    (%r8),%eax
    3f1c:	39 c6                	cmp    %eax,%esi
    3f1e:	0f 84 83 00 00 00    	je     3fa7 <_ZN9MST_Graph10path_labelEiiiRSt6vectorIiSaIiEE+0x177>
    3f24:	48 63 f0             	movslq %eax,%rsi
    3f27:	4c 8d 4c b5 00       	lea    0x0(%rbp,%rsi,4),%r9
    3f2c:	41 8b 31             	mov    (%r9),%esi
    3f2f:	39 f0                	cmp    %esi,%eax
    3f31:	74 71                	je     3fa4 <_ZN9MST_Graph10path_labelEiiiRSt6vectorIiSaIiEE+0x174>
    3f33:	48 63 c6             	movslq %esi,%rax
    3f36:	4c 8d 54 85 00       	lea    0x0(%rbp,%rax,4),%r10
    3f3b:	41 8b 02             	mov    (%r10),%eax
    3f3e:	39 c6                	cmp    %eax,%esi
    3f40:	74 5f                	je     3fa1 <_ZN9MST_Graph10path_labelEiiiRSt6vectorIiSaIiEE+0x171>
    3f42:	48 63 f0             	movslq %eax,%rsi
    3f45:	48 8d 74 b5 00       	lea    0x0(%rbp,%rsi,4),%rsi
    3f4a:	48 89 34 24          	mov    %rsi,(%rsp)
    3f4e:	8b 36                	mov    (%rsi),%esi
    3f50:	39 f0                	cmp    %esi,%eax
    3f52:	74 4a                	je     3f9e <_ZN9MST_Graph10path_labelEiiiRSt6vectorIiSaIiEE+0x16e>
		parent[u] = find(parent[u]);
    3f54:	48 8b 7c 24 18       	mov    0x18(%rsp),%rdi
    3f59:	44 89 5c 24 4c       	mov    %r11d,0x4c(%rsp)
    3f5e:	89 4c 24 48          	mov    %ecx,0x48(%rsp)
    3f62:	4c 89 54 24 40       	mov    %r10,0x40(%rsp)
    3f67:	4c 89 4c 24 38       	mov    %r9,0x38(%rsp)
    3f6c:	4c 89 44 24 30       	mov    %r8,0x30(%rsp)
    3f71:	48 89 54 24 08       	mov    %rdx,0x8(%rsp)
    3f76:	e8 e5 e9 ff ff       	call   2960 <_ZN9UnionFind4findEi>
    3f7b:	48 8b 34 24          	mov    (%rsp),%rsi
    3f7f:	44 8b 5c 24 4c       	mov    0x4c(%rsp),%r11d
    3f84:	8b 4c 24 48          	mov    0x48(%rsp),%ecx
    3f88:	4c 8b 54 24 40       	mov    0x40(%rsp),%r10
    3f8d:	4c 8b 4c 24 38       	mov    0x38(%rsp),%r9
    3f92:	4c 8b 44 24 30       	mov    0x30(%rsp),%r8
    3f97:	89 06                	mov    %eax,(%rsi)
    3f99:	48 8b 54 24 08       	mov    0x8(%rsp),%rdx
    3f9e:	41 89 02             	mov    %eax,(%r10)
    3fa1:	41 89 01             	mov    %eax,(%r9)
    3fa4:	41 89 00             	mov    %eax,(%r8)
    3fa7:	89 02                	mov    %eax,(%rdx)
    3fa9:	41 89 06             	mov    %eax,(%r14)
            if (uf.find(v) == v) {
    3fac:	39 d8                	cmp    %ebx,%eax
    3fae:	0f 84 ec 00 00 00    	je     40a0 <_ZN9MST_Graph10path_labelEiiiRSt6vectorIiSaIiEE+0x270>
		if (parent[u] == u) {
    3fb4:	48 63 d0             	movslq %eax,%rdx
    3fb7:	4c 8d 7c 95 00       	lea    0x0(%rbp,%rdx,4),%r15
    3fbc:	41 8b 1f             	mov    (%r15),%ebx
      operator[](size_type __n) _GLIBCXX_NOEXCEPT
    3fbf:	4c 63 e3             	movslq %ebx,%r12
    3fc2:	39 d8                	cmp    %ebx,%eax
    3fc4:	0f 84 87 00 00 00    	je     4051 <_ZN9MST_Graph10path_labelEiiiRSt6vectorIiSaIiEE+0x221>
	return *(this->_M_impl._M_start + __n);
    3fca:	4a 8d 54 a5 00       	lea    0x0(%rbp,%r12,4),%rdx
    3fcf:	8b 02                	mov    (%rdx),%eax
    3fd1:	39 d8                	cmp    %ebx,%eax
    3fd3:	74 79                	je     404e <_ZN9MST_Graph10path_labelEiiiRSt6vectorIiSaIiEE+0x21e>
    3fd5:	48 63 f0             	movslq %eax,%rsi
    3fd8:	4c 8d 44 b5 00       	lea    0x0(%rbp,%rsi,4),%r8
    3fdd:	4d 63 20             	movslq (%r8),%r12
    3fe0:	4c 89 e3             	mov    %r12,%rbx
    3fe3:	44 39 e0             	cmp    %r12d,%eax
    3fe6:	74 64                	je     404c <_ZN9MST_Graph10path_labelEiiiRSt6vectorIiSaIiEE+0x21c>
    3fe8:	4e 8d 4c a5 00       	lea    0x0(%rbp,%r12,4),%r9
    3fed:	41 8b 01             	mov    (%r9),%eax
    3ff0:	41 39 c4             	cmp    %eax,%r12d
    3ff3:	74 54                	je     4049 <_ZN9MST_Graph10path_labelEiiiRSt6vectorIiSaIiEE+0x219>
    3ff5:	48 63 f0             	movslq %eax,%rsi
    3ff8:	48 8d 6c b5 00       	lea    0x0(%rbp,%rsi,4),%rbp
    3ffd:	8b 5d 00             	mov    0x0(%rbp),%ebx
    4000:	39 d8                	cmp    %ebx,%eax
    4002:	74 3f                	je     4043 <_ZN9MST_Graph10path_labelEiiiRSt6vectorIiSaIiEE+0x213>
		parent[u] = find(parent[u]);
    4004:	48 8b 7c 24 18       	mov    0x18(%rsp),%rdi
    4009:	89 de                	mov    %ebx,%esi
    400b:	44 89 5c 24 40       	mov    %r11d,0x40(%rsp)
    4010:	89 4c 24 38          	mov    %ecx,0x38(%rsp)
    4014:	4c 89 4c 24 30       	mov    %r9,0x30(%rsp)
    4019:	4c 89 44 24 08       	mov    %r8,0x8(%rsp)
    401e:	48 89 14 24          	mov    %rdx,(%rsp)
    4022:	e8 39 e9 ff ff       	call   2960 <_ZN9UnionFind4findEi>
    4027:	44 8b 5c 24 40       	mov    0x40(%rsp),%r11d
    402c:	8b 4c 24 38          	mov    0x38(%rsp),%ecx
    4030:	4c 8b 4c 24 30       	mov    0x30(%rsp),%r9
    4035:	4c 8b 44 24 08       	mov    0x8(%rsp),%r8
    403a:	89 45 00             	mov    %eax,0x0(%rbp)
    403d:	89 c3                	mov    %eax,%ebx
    403f:	48 8b 14 24          	mov    (%rsp),%rdx
    4043:	41 89 19             	mov    %ebx,(%r9)
		return parent[u];
    4046:	4c 63 e3             	movslq %ebx,%r12
		parent[u] = find(parent[u]);
    4049:	41 89 18             	mov    %ebx,(%r8)
    404c:	89 1a                	mov    %ebx,(%rdx)
    404e:	41 89 1f             	mov    %ebx,(%r15)
    4051:	41 89 1e             	mov    %ebx,(%r14)
            switch (plan) {
    4054:	8b 7c 24 20          	mov    0x20(%rsp),%edi
    4058:	4a 8d 04 a5 00 00 00 	lea    0x0(,%r12,4),%rax
    405f:	00 
    4060:	83 ff 01             	cmp    $0x1,%edi
    4063:	0f 84 37 01 00 00    	je     41a0 <_ZN9MST_Graph10path_labelEiiiRSt6vectorIiSaIiEE+0x370>
                    k_2 = in[v];
    4069:	49 8b 55 68          	mov    0x68(%r13),%rdx
    406d:	8b 0c 02             	mov    (%rdx,%rax,1),%ecx
        while (k_1 < k_2) {
    4070:	44 39 d9             	cmp    %r11d,%ecx
    4073:	0f 8f 67 fe ff ff    	jg     3ee0 <_ZN9MST_Graph10path_labelEiiiRSt6vectorIiSaIiEE+0xb0>
    }
    4079:	48 8b 44 24 68       	mov    0x68(%rsp),%rax
    407e:	64 48 2b 04 25 28 00 	sub    %fs:0x28,%rax
    4085:	00 00 
    4087:	0f 85 42 01 00 00    	jne    41cf <_ZN9MST_Graph10path_labelEiiiRSt6vectorIiSaIiEE+0x39f>
    408d:	48 83 c4 78          	add    $0x78,%rsp
    4091:	5b                   	pop    %rbx
    4092:	5d                   	pop    %rbp
    4093:	41 5c                	pop    %r12
    4095:	41 5d                	pop    %r13
    4097:	41 5e                	pop    %r14
    4099:	41 5f                	pop    %r15
    409b:	c3                   	ret
    409c:	0f 1f 40 00          	nopl   0x0(%rax)
    40a0:	49 8b 7d 50          	mov    0x50(%r13),%rdi
      { return static_cast<_Link_type>(this->_M_impl._M_header._M_parent); }
    40a4:	49 8b 85 e0 00 00 00 	mov    0xe0(%r13),%rax
      template<typename _U1, typename _U2>
	requires (_S_constructible<_U1, _U2>()) && (!_S_dangles<_U1, _U2>())
	constexpr explicit(!_S_convertible<_U1, _U2>())
	pair(_U1&& __x, _U2&& __y)
	noexcept(_S_nothrow_constructible<_U1, _U2>())
	: first(std::forward<_U1>(__x)), second(std::forward<_U2>(__y))
    40ab:	89 5c 24 60          	mov    %ebx,0x60(%rsp)
      while (__x != 0)
    40af:	48 8b 74 24 10       	mov    0x10(%rsp),%rsi
    40b4:	4c 01 ff             	add    %r15,%rdi
    40b7:	8b 17                	mov    (%rdi),%edx
    40b9:	89 54 24 64          	mov    %edx,0x64(%rsp)
    40bd:	48 85 c0             	test   %rax,%rax
    40c0:	74 30                	je     40f2 <_ZN9MST_Graph10path_labelEiiiRSt6vectorIiSaIiEE+0x2c2>
    40c2:	66 0f 1f 44 00 00    	nopw   0x0(%rax,%rax,1)
    40c8:	3b 58 20             	cmp    0x20(%rax),%ebx
    40cb:	0f 84 a7 00 00 00    	je     4178 <_ZN9MST_Graph10path_labelEiiiRSt6vectorIiSaIiEE+0x348>
